   1               		.file	"debug.c"
   2               	__SREG__ = 0x3f
   3               	__SP_H__ = 0x3e
   4               	__SP_L__ = 0x3d
   5               	__CCP__  = 0x34
   6               	__tmp_reg__ = 0
   7               	__zero_reg__ = 1
  15               	.Ltext0:
  16               	.global	Debug_Struct_Init
  18               	Debug_Struct_Init:
  19               	.LFB6:
  20               	.LM1:
  21               	/* prologue: function */
  22               	/* frame size = 0 */
  23               	.LM2:
  24 0000 1092 0000 		sts Debug,__zero_reg__
  25               	.LM3:
  26 0004 1092 0000 		sts Debug+1,__zero_reg__
  27 0008 E0E0      		ldi r30,lo8(Debug+2)
  28 000a F0E0      		ldi r31,hi8(Debug+2)
  29               	.L2:
  30               	.LBB185:
  31               	.LM4:
  32 000c 1192      		st Z+,__zero_reg__
  33               	.LM5:
  34 000e 80E0      		ldi r24,hi8(Debug+10)
  35 0010 E030      		cpi r30,lo8(Debug+10)
  36 0012 F807      		cpc r31,r24
  37 0014 01F4      		brne .L2
  38               	.LBE185:
  39               	.LM6:
  40 0016 1082      		st Z,__zero_reg__
  41               	.LM7:
  42 0018 1182      		std Z+1,__zero_reg__
  43               	.LM8:
  44 001a 80E4      		ldi r24,lo8(64)
  45 001c 90E0      		ldi r25,hi8(64)
  46 001e 9093 0000 		sts (Debug+77)+1,r25
  47 0022 8093 0000 		sts Debug+77,r24
  48               	.LM9:
  49 0026 1092 0000 		sts (Debug+79)+1,__zero_reg__
  50 002a 1092 0000 		sts Debug+79,__zero_reg__
  51 002e 20E0      		ldi r18,lo8(0)
  52               	.LVL0:
  53 0030 00C0      		rjmp .L3
  54               	.LVL1:
  55               	.L4:
  56               	.LBB186:
  57               	.LM10:
  58 0032 E050      		subi r30,lo8(-(Debug))
  59 0034 F040      		sbci r31,hi8(-(Debug))
  60               	.LVL2:
  61 0036 1486      		std Z+12,__zero_reg__
  62               	.LM11:
  63 0038 2F5F      		subi r18,lo8(-(1))
  64               	.LVL3:
  65               	.L3:
  66 003a 8091 0000 		lds r24,Debug+77
  67 003e 9091 0000 		lds r25,(Debug+77)+1
  68 0042 E22F      		mov r30,r18
  69 0044 F0E0      		ldi r31,lo8(0)
  70 0046 E817      		cp r30,r24
  71 0048 F907      		cpc r31,r25
  72 004a 00F0      		brlo .L4
  73               	.LVL4:
  74               	/* epilogue start */
  75               	.LBE186:
  76               	.LM12:
  77 004c 0895      		ret
  78               	.LFE6:
  80               	.global	Debug_RX_Packet_Struct_Init
  82               	Debug_RX_Packet_Struct_Init:
  83               	.LFB7:
  84               	.LM13:
  85               	/* prologue: function */
  86               	/* frame size = 0 */
  87               	.LM14:
  88 004e 1092 0000 		sts (Debug+83)+1,__zero_reg__
  89 0052 1092 0000 		sts Debug+83,__zero_reg__
  90               	.LM15:
  91 0056 1092 0000 		sts (Debug+85)+1,__zero_reg__
  92 005a 1092 0000 		sts Debug+85,__zero_reg__
  93               	.LM16:
  94 005e 1092 0000 		sts Debug+87,__zero_reg__
  95               	.LM17:
  96 0062 1092 0000 		sts Debug+88,__zero_reg__
  97               	.LM18:
  98 0066 81E0      		ldi r24,lo8(1)
  99 0068 8093 0000 		sts Debug+89,r24
 100               	/* epilogue start */
 101               	.LM19:
 102 006c 0895      		ret
 103               	.LFE7:
 105               	.global	Debug_Config_GPIO
 107               	Debug_Config_GPIO:
 108               	.LFB8:
 109               	.LM20:
 110               	/* prologue: function */
 111               	/* frame size = 0 */
 112               	/* epilogue start */
 113               	.LM21:
 114 006e 0895      		ret
 115               	.LFE8:
 117               	.global	Debug_Config_Clock
 119               	Debug_Config_Clock:
 120               	.LFB9:
 121               	.LM22:
 122               	/* prologue: function */
 123               	/* frame size = 0 */
 124               	.LM23:
 125 0070 E0EC      		ldi r30,lo8(192)
 126 0072 F0E0      		ldi r31,hi8(192)
 127 0074 8081      		ld r24,Z
 128 0076 8D7F      		andi r24,lo8(-3)
 129 0078 8083      		st Z,r24
 130               	/* epilogue start */
 131               	.LM24:
 132 007a 0895      		ret
 133               	.LFE9:
 135               	.global	Debug_Config_BAUD_Rate
 137               	Debug_Config_BAUD_Rate:
 138               	.LFB10:
 139               	.LM25:
 140               	.LVL5:
 141               	/* prologue: function */
 142               	/* frame size = 0 */
 143 007c 9B01      		movw r18,r22
 144 007e AC01      		movw r20,r24
 145               	.LM26:
 146 0080 60EB      		ldi r22,lo8(750000)
 147 0082 71E7      		ldi r23,hi8(750000)
 148 0084 8BE0      		ldi r24,hlo8(750000)
 149 0086 90E0      		ldi r25,hhi8(750000)
 150               	.LVL6:
 151 0088 0E94 0000 		call __udivmodsi4
 152               	.LVL7:
 153 008c 2150      		subi r18,lo8(-(-1))
 154 008e 3040      		sbci r19,hi8(-(-1))
 155 0090 4040      		sbci r20,hlo8(-(-1))
 156 0092 5040      		sbci r21,hhi8(-(-1))
 157               	.LVL8:
 158               	.LM27:
 159 0094 BB27      		clr r27
 160 0096 A52F      		mov r26,r21
 161 0098 942F      		mov r25,r20
 162 009a 832F      		mov r24,r19
 163 009c 8093 C500 		sts 197,r24
 164               	.LM28:
 165 00a0 2093 C400 		sts 196,r18
 166               	/* epilogue start */
 167               	.LM29:
 168 00a4 0895      		ret
 169               	.LFE10:
 171               	.global	Debug_Config_Tx
 173               	Debug_Config_Tx:
 174               	.LFB11:
 175               	.LM30:
 176               	/* prologue: function */
 177               	/* frame size = 0 */
 178               	.LM31:
 179 00a6 E1EC      		ldi r30,lo8(193)
 180 00a8 F0E0      		ldi r31,hi8(193)
 181 00aa 8081      		ld r24,Z
 182 00ac 8860      		ori r24,lo8(8)
 183 00ae 8083      		st Z,r24
 184               	.LM32:
 185 00b0 E2EC      		ldi r30,lo8(194)
 186 00b2 F0E0      		ldi r31,hi8(194)
 187 00b4 8081      		ld r24,Z
 188 00b6 8660      		ori r24,lo8(6)
 189 00b8 8083      		st Z,r24
 190               	/* epilogue start */
 191               	.LM33:
 192 00ba 0895      		ret
 193               	.LFE11:
 195               	.global	Debug_Config_Rx
 197               	Debug_Config_Rx:
 198               	.LFB12:
 199               	.LM34:
 200               	/* prologue: function */
 201               	/* frame size = 0 */
 202               	.LM35:
 203 00bc E1EC      		ldi r30,lo8(193)
 204 00be F0E0      		ldi r31,hi8(193)
 205 00c0 8081      		ld r24,Z
 206 00c2 8061      		ori r24,lo8(16)
 207 00c4 8083      		st Z,r24
 208               	.LM36:
 209 00c6 E2EC      		ldi r30,lo8(194)
 210 00c8 F0E0      		ldi r31,hi8(194)
 211 00ca 8081      		ld r24,Z
 212 00cc 8660      		ori r24,lo8(6)
 213 00ce 8083      		st Z,r24
 214               	/* epilogue start */
 215               	.LM37:
 216 00d0 0895      		ret
 217               	.LFE12:
 219               	.global	Debug_Config_Rx_Interrupt
 221               	Debug_Config_Rx_Interrupt:
 222               	.LFB13:
 223               	.LM38:
 224               	/* prologue: function */
 225               	/* frame size = 0 */
 226               	.LM39:
 227 00d2 E1EC      		ldi r30,lo8(193)
 228 00d4 F0E0      		ldi r31,hi8(193)
 229 00d6 8081      		ld r24,Z
 230 00d8 8068      		ori r24,lo8(-128)
 231 00da 8083      		st Z,r24
 232               	.LM40:
 233               	/* #APP */
 234               	 ;  170 "debug.c" 1
 235 00dc 7894      		sei
 236               	 ;  0 "" 2
 237               	/* epilogue start */
 238               	.LM41:
 239               	/* #NOAPP */
 240 00de 0895      		ret
 241               	.LFE13:
 243               	.global	Debug_Clear_Interrupt_Flag
 245               	Debug_Clear_Interrupt_Flag:
 246               	.LFB14:
 247               	.LM42:
 248               	/* prologue: function */
 249               	/* frame size = 0 */
 250               	/* epilogue start */
 251               	.LM43:
 252 00e0 0895      		ret
 253               	.LFE14:
 255               	.global	Debug_Tx_Byte
 257               	Debug_Tx_Byte:
 258               	.LFB15:
 259               	.LM44:
 260               	.LVL9:
 261               	/* prologue: function */
 262               	/* frame size = 0 */
 263               	.LM45:
 264 00e2 8093 C600 		sts 198,r24
 265               	.L24:
 266               	.LM46:
 267 00e6 8091 C000 		lds r24,192
 268               	.LVL10:
 269 00ea 85FF      		sbrs r24,5
 270 00ec 00C0      		rjmp .L24
 271               	/* epilogue start */
 272               	.LM47:
 273 00ee 0895      		ret
 274               	.LFE15:
 276               	.global	Debug_Rx_Byte
 278               	Debug_Rx_Byte:
 279               	.LFB16:
 280               	.LM48:
 281               	/* prologue: function */
 282               	/* frame size = 0 */
 283               	.LM49:
 284 00f0 8091 C000 		lds r24,192
 285 00f4 84FF      		sbrs r24,4
 286 00f6 00C0      		rjmp .L28
 287               	.LM50:
 288 00f8 8091 C600 		lds r24,198
 289               	.LVL11:
 290 00fc 0895      		ret
 291               	.LVL12:
 292               	.L28:
 293               	.LM51:
 294 00fe 8091 C000 		lds r24,192
 295               	.LM52:
 296 0102 8091 C600 		lds r24,198
 297               	.LVL13:
 298               	.LVL14:
 299               	.LM53:
 300 0106 0895      		ret
 301               	.LFE16:
 303               	.global	Debug_Timer_Struct_Init
 305               	Debug_Timer_Struct_Init:
 306               	.LFB18:
 307               	.LM54:
 308               	/* prologue: function */
 309               	/* frame size = 0 */
 310               	.LM55:
 311 0108 1092 0000 		sts Debug+81,__zero_reg__
 312               	.LM56:
 313 010c 1092 0000 		sts Debug+82,__zero_reg__
 314               	/* epilogue start */
 315               	.LM57:
 316 0110 0895      		ret
 317               	.LFE18:
 319               	.global	Debug_Timer_Init
 321               	Debug_Timer_Init:
 322               	.LFB19:
 323               	.LM58:
 324               	/* prologue: function */
 325               	/* frame size = 0 */
 326               	/* epilogue start */
 327               	.LM59:
 328 0112 0895      		ret
 329               	.LFE19:
 331               	.global	Debug_Timer_Enable
 333               	Debug_Timer_Enable:
 334               	.LFB20:
 335               	.LM60:
 336               	/* prologue: function */
 337               	/* frame size = 0 */
 338               	/* epilogue start */
 339               	.LM61:
 340 0114 0895      		ret
 341               	.LFE20:
 343               	.global	Debug_Timer_Disable
 345               	Debug_Timer_Disable:
 346               	.LFB21:
 347               	.LM62:
 348               	/* prologue: function */
 349               	/* frame size = 0 */
 350               	/* epilogue start */
 351               	.LM63:
 352 0116 0895      		ret
 353               	.LFE21:
 355               	.global	Debug_Timer_Get_Status
 357               	Debug_Timer_Get_Status:
 358               	.LFB22:
 359               	.LM64:
 360               	/* prologue: function */
 361               	/* frame size = 0 */
 362               	.LM65:
 363 0118 8091 0000 		lds r24,Debug+81
 364               	/* epilogue start */
 365               	.LM66:
 366 011c 0895      		ret
 367               	.LFE22:
 369               	.global	Debug_Timer_Get_Val
 371               	Debug_Timer_Get_Val:
 372               	.LFB23:
 373               	.LM67:
 374               	/* prologue: function */
 375               	/* frame size = 0 */
 376               	.LM68:
 377 011e 80E0      		ldi r24,lo8(0)
 378 0120 90E0      		ldi r25,hi8(0)
 379               	/* epilogue start */
 380 0122 0895      		ret
 381               	.LFE23:
 383               	.global	Debug_Timer_Value_Reset
 385               	Debug_Timer_Value_Reset:
 386               	.LFB24:
 387               	.LM69:
 388               	/* prologue: function */
 389               	/* frame size = 0 */
 390               	/* epilogue start */
 391               	.LM70:
 392 0124 0895      		ret
 393               	.LFE24:
 395               	.global	Debug_Timer_Clear_Interrupt_Flag
 397               	Debug_Timer_Clear_Interrupt_Flag:
 398               	.LFB25:
 399               	.LM71:
 400               	/* prologue: function */
 401               	/* frame size = 0 */
 402               	/* epilogue start */
 403               	.LM72:
 404 0126 0895      		ret
 405               	.LFE25:
 407               	.global	Debug_Tx_Buf
 409               	Debug_Tx_Buf:
 410               	.LFB26:
 411               	.LM73:
 412               	.LVL15:
 413               	/* prologue: function */
 414               	/* frame size = 0 */
 415 0128 DC01      		movw r26,r24
 416               	.LM74:
 417 012a 460F      		add r20,r22
 418               	.LVL16:
 419 012c 20E0      		ldi r18,lo8(0)
 420 012e 30E0      		ldi r19,hi8(0)
 421               	.LVL17:
 422               	.LBB187:
 423               	.LM75:
 424 0130 50E0      		ldi r21,lo8(0)
 425               	.LVL18:
 426 0132 00C0      		rjmp .L49
 427               	.LVL19:
 428               	.L51:
 429               	.LBE187:
 430 0134 FD01      		movw r30,r26
 431 0136 E20F      		add r30,r18
 432 0138 F31F      		adc r31,r19
 433               	.LBB190:
 434               	.LM76:
 435 013a 8081      		ld r24,Z
 436               	.LBB188:
 437               	.LBB189:
 438               	.LM77:
 439 013c 8093 C600 		sts 198,r24
 440               	.L50:
 441               	.LM78:
 442 0140 8091 C000 		lds r24,192
 443 0144 85FF      		sbrs r24,5
 444 0146 00C0      		rjmp .L50
 445               	.LBE189:
 446               	.LBE188:
 447               	.LM79:
 448 0148 2F5F      		subi r18,lo8(-(1))
 449 014a 3F4F      		sbci r19,hi8(-(1))
 450               	.LVL20:
 451               	.L49:
 452 014c 2417      		cp r18,r20
 453 014e 3507      		cpc r19,r21
 454 0150 00F0      		brlo .L51
 455               	/* epilogue start */
 456               	.LBE190:
 457               	.LM80:
 458 0152 0895      		ret
 459               	.LFE26:
 461               	.global	Debug_Tx_NL
 463               	Debug_Tx_NL:
 464               	.LFB27:
 465               	.LM81:
 466               	/* prologue: function */
 467               	/* frame size = 0 */
 468               	.LBB191:
 469               	.LBB192:
 470               	.LM82:
 471 0154 8DE0      		ldi r24,lo8(13)
 472 0156 8093 C600 		sts 198,r24
 473               	.L55:
 474               	.LM83:
 475 015a 8091 C000 		lds r24,192
 476 015e 85FF      		sbrs r24,5
 477 0160 00C0      		rjmp .L55
 478               	.LBE192:
 479               	.LBE191:
 480               	.LBB193:
 481               	.LBB194:
 482               	.LM84:
 483 0162 8AE0      		ldi r24,lo8(10)
 484 0164 8093 C600 		sts 198,r24
 485               	.L56:
 486               	.LM85:
 487 0168 8091 C000 		lds r24,192
 488 016c 85FF      		sbrs r24,5
 489 016e 00C0      		rjmp .L56
 490               	/* epilogue start */
 491               	.LBE194:
 492               	.LBE193:
 493               	.LM86:
 494 0170 0895      		ret
 495               	.LFE27:
 497               	.global	Debug_Tx_SP
 499               	Debug_Tx_SP:
 500               	.LFB28:
 501               	.LM87:
 502               	/* prologue: function */
 503               	/* frame size = 0 */
 504               	.LBB195:
 505               	.LBB196:
 506               	.LM88:
 507 0172 80E2      		ldi r24,lo8(32)
 508 0174 8093 C600 		sts 198,r24
 509               	.L61:
 510               	.LM89:
 511 0178 8091 C000 		lds r24,192
 512 017c 85FF      		sbrs r24,5
 513 017e 00C0      		rjmp .L61
 514               	/* epilogue start */
 515               	.LBE196:
 516               	.LBE195:
 517               	.LM90:
 518 0180 0895      		ret
 519               	.LFE28:
 521               	.global	Debug_Tx_CM
 523               	Debug_Tx_CM:
 524               	.LFB29:
 525               	.LM91:
 526               	/* prologue: function */
 527               	/* frame size = 0 */
 528               	.LBB197:
 529               	.LBB198:
 530               	.LM92:
 531 0182 8CE2      		ldi r24,lo8(44)
 532 0184 8093 C600 		sts 198,r24
 533               	.L65:
 534               	.LM93:
 535 0188 8091 C000 		lds r24,192
 536 018c 85FF      		sbrs r24,5
 537 018e 00C0      		rjmp .L65
 538               	/* epilogue start */
 539               	.LBE198:
 540               	.LBE197:
 541               	.LM94:
 542 0190 0895      		ret
 543               	.LFE29:
 545               	.global	Debug_Tx_Text
 547               	Debug_Tx_Text:
 548               	.LFB30:
 549               	.LM95:
 550               	.LVL21:
 551               	/* prologue: function */
 552               	/* frame size = 0 */
 553 0192 AC01      		movw r20,r24
 554               	.LM96:
 555 0194 20E0      		ldi r18,lo8(0)
 556               	.LVL22:
 557 0196 00C0      		rjmp .L69
 558               	.LVL23:
 559               	.L71:
 560               	.LBB199:
 561               	.LBB200:
 562               	.LM97:
 563 0198 E093 C600 		sts 198,r30
 564               	.L70:
 565               	.LM98:
 566 019c 8091 C000 		lds r24,192
 567 01a0 85FF      		sbrs r24,5
 568 01a2 00C0      		rjmp .L70
 569               	.LBE200:
 570               	.LBE199:
 571               	.LM99:
 572 01a4 2F5F      		subi r18,lo8(-(1))
 573               	.LVL24:
 574               	.L69:
 575               	.LM100:
 576 01a6 FA01      		movw r30,r20
 577 01a8 E20F      		add r30,r18
 578 01aa F11D      		adc r31,__zero_reg__
 579 01ac E081      		ld r30,Z
 580 01ae EE23      		tst r30
 581 01b0 01F4      		brne .L71
 582               	/* epilogue start */
 583               	.LM101:
 584 01b2 0895      		ret
 585               	.LFE30:
 587               	.global	Debug_Tx_Text_NL
 589               	Debug_Tx_Text_NL:
 590               	.LFB31:
 591               	.LM102:
 592               	.LVL25:
 593               	/* prologue: function */
 594               	/* frame size = 0 */
 595               	.LM103:
 596 01b4 0E94 0000 		call Debug_Tx_Text
 597               	.LVL26:
 598               	.LM104:
 599 01b8 0E94 0000 		call Debug_Tx_NL
 600               	/* epilogue start */
 601               	.LM105:
 602 01bc 0895      		ret
 603               	.LFE31:
 605               	.global	Debug_Tx_Text_SP
 607               	Debug_Tx_Text_SP:
 608               	.LFB32:
 609               	.LM106:
 610               	.LVL27:
 611               	/* prologue: function */
 612               	/* frame size = 0 */
 613               	.LM107:
 614 01be 0E94 0000 		call Debug_Tx_Text
 615               	.LVL28:
 616               	.LBB201:
 617               	.LBB202:
 618               	.LBB203:
 619               	.LBB204:
 620               	.LM108:
 621 01c2 80E2      		ldi r24,lo8(32)
 622 01c4 8093 C600 		sts 198,r24
 623               	.L77:
 624               	.LM109:
 625 01c8 8091 C000 		lds r24,192
 626 01cc 85FF      		sbrs r24,5
 627 01ce 00C0      		rjmp .L77
 628               	/* epilogue start */
 629               	.LBE204:
 630               	.LBE203:
 631               	.LBE202:
 632               	.LBE201:
 633               	.LM110:
 634 01d0 0895      		ret
 635               	.LFE32:
 637               	.global	Debug_Tx_Text_CM
 639               	Debug_Tx_Text_CM:
 640               	.LFB33:
 641               	.LM111:
 642               	.LVL29:
 643               	/* prologue: function */
 644               	/* frame size = 0 */
 645               	.LM112:
 646 01d2 0E94 0000 		call Debug_Tx_Text
 647               	.LVL30:
 648               	.LBB205:
 649               	.LBB206:
 650               	.LBB207:
 651               	.LBB208:
 652               	.LM113:
 653 01d6 8CE2      		ldi r24,lo8(44)
 654 01d8 8093 C600 		sts 198,r24
 655               	.L81:
 656               	.LM114:
 657 01dc 8091 C000 		lds r24,192
 658 01e0 85FF      		sbrs r24,5
 659 01e2 00C0      		rjmp .L81
 660               	/* epilogue start */
 661               	.LBE208:
 662               	.LBE207:
 663               	.LBE206:
 664               	.LBE205:
 665               	.LM115:
 666 01e4 0895      		ret
 667               	.LFE33:
 669               	.global	Debug_Determine_Digit_Numbers
 671               	Debug_Determine_Digit_Numbers:
 672               	.LFB34:
 673               	.LM116:
 674               	.LVL31:
 675 01e6 BF92      		push r11
 676 01e8 CF92      		push r12
 677 01ea DF92      		push r13
 678 01ec EF92      		push r14
 679 01ee FF92      		push r15
 680 01f0 0F93      		push r16
 681 01f2 1F93      		push r17
 682               	/* prologue: function */
 683               	/* frame size = 0 */
 684 01f4 6B01      		movw r12,r22
 685 01f6 7C01      		movw r14,r24
 686               	.LM117:
 687 01f8 6115      		cp r22,__zero_reg__
 688 01fa 7105      		cpc r23,__zero_reg__
 689 01fc 8105      		cpc r24,__zero_reg__
 690 01fe 9105      		cpc r25,__zero_reg__
 691 0200 01F4      		brne .L85
 692               	.LM118:
 693 0202 1092 0000 		sts Debug+2,__zero_reg__
 694               	.LM119:
 695 0206 81E0      		ldi r24,lo8(1)
 696 0208 8093 0000 		sts Debug+10,r24
 697 020c 00C0      		rjmp .L88
 698               	.L85:
 699 020e BB24      		clr r11
 700               	.LVL32:
 701               	.L87:
 702               	.LM120:
 703 0210 0B2D      		mov r16,r11
 704 0212 10E0      		ldi r17,lo8(0)
 705               	.LVL33:
 706 0214 0050      		subi r16,lo8(-(Debug))
 707 0216 1040      		sbci r17,hi8(-(Debug))
 708               	.LVL34:
 709 0218 C701      		movw r24,r14
 710 021a B601      		movw r22,r12
 711               	.LVL35:
 712 021c 2AE0      		ldi r18,lo8(10)
 713 021e 30E0      		ldi r19,hi8(10)
 714 0220 40E0      		ldi r20,hlo8(10)
 715 0222 50E0      		ldi r21,hhi8(10)
 716 0224 0E94 0000 		call __udivmodsi4
 717 0228 F801      		movw r30,r16
 718 022a 6283      		std Z+2,r22
 719               	.LM121:
 720 022c C701      		movw r24,r14
 721 022e B601      		movw r22,r12
 722 0230 2AE0      		ldi r18,lo8(10)
 723 0232 30E0      		ldi r19,hi8(10)
 724 0234 40E0      		ldi r20,hlo8(10)
 725 0236 50E0      		ldi r21,hhi8(10)
 726 0238 0E94 0000 		call __udivmodsi4
 727 023c C901      		movw r24,r18
 728 023e DA01      		movw r26,r20
 729 0240 6C01      		movw r12,r24
 730 0242 7D01      		movw r14,r26
 731               	.LM122:
 732 0244 B394      		inc r11
 733               	.LVL36:
 734               	.LM123:
 735 0246 C114      		cp r12,__zero_reg__
 736 0248 D104      		cpc r13,__zero_reg__
 737 024a E104      		cpc r14,__zero_reg__
 738 024c F104      		cpc r15,__zero_reg__
 739 024e 01F4      		brne .L87
 740               	.LM124:
 741 0250 B092 0000 		sts Debug+10,r11
 742               	.LVL37:
 743               	.L88:
 744               	/* epilogue start */
 745               	.LM125:
 746 0254 1F91      		pop r17
 747               	.LVL38:
 748 0256 0F91      		pop r16
 749 0258 FF90      		pop r15
 750 025a EF90      		pop r14
 751 025c DF90      		pop r13
 752 025e CF90      		pop r12
 753               	.LVL39:
 754 0260 BF90      		pop r11
 755               	.LVL40:
 756 0262 0895      		ret
 757               	.LFE34:
 759               	.global	Debug_Tx_Number_Digits
 761               	Debug_Tx_Number_Digits:
 762               	.LFB35:
 763               	.LM126:
 764               	/* prologue: function */
 765               	/* frame size = 0 */
 766               	.LBB209:
 767               	.LM127:
 768 0264 9091 0000 		lds r25,Debug+10
 769               	.LVL41:
 770 0268 00C0      		rjmp .L91
 771               	.LVL42:
 772               	.L93:
 773               	.LBB210:
 774               	.LM128:
 775 026a 292F      		mov r18,r25
 776 026c 2150      		subi r18,lo8(-(-1))
 777               	.LM129:
 778 026e E22F      		mov r30,r18
 779 0270 F0E0      		ldi r31,lo8(0)
 780 0272 E050      		subi r30,lo8(-(Debug))
 781 0274 F040      		sbci r31,hi8(-(Debug))
 782 0276 8281      		ldd r24,Z+2
 783               	.LVL43:
 784               	.LM130:
 785 0278 805D      		subi r24,lo8(-(48))
 786               	.LBB211:
 787               	.LBB212:
 788               	.LM131:
 789 027a 8093 C600 		sts 198,r24
 790               	.L92:
 791               	.LM132:
 792 027e 8091 C000 		lds r24,192
 793               	.LVL44:
 794 0282 922F      		mov r25,r18
 795               	.LVL45:
 796 0284 85FF      		sbrs r24,5
 797 0286 00C0      		rjmp .L92
 798               	.L91:
 799               	.LBE212:
 800               	.LBE211:
 801               	.LBE210:
 802               	.LM133:
 803 0288 9923      		tst r25
 804 028a 01F4      		brne .L93
 805               	/* epilogue start */
 806               	.LBE209:
 807               	.LM134:
 808 028c 0895      		ret
 809               	.LFE35:
 811               	.global	Debug_Tx_Number
 813               	Debug_Tx_Number:
 814               	.LFB36:
 815               	.LM135:
 816               	.LVL46:
 817               	/* prologue: function */
 818               	/* frame size = 0 */
 819 028e 9B01      		movw r18,r22
 820 0290 AC01      		movw r20,r24
 821               	.LM136:
 822 0292 97FF      		sbrs r25,7
 823 0294 00C0      		rjmp .L97
 824               	.LBB213:
 825               	.LBB214:
 826               	.LM137:
 827 0296 8DE2      		ldi r24,lo8(45)
 828 0298 8093 C600 		sts 198,r24
 829               	.L98:
 830               	.LM138:
 831 029c 8091 C000 		lds r24,192
 832 02a0 85FF      		sbrs r24,5
 833 02a2 00C0      		rjmp .L98
 834               	.LBE214:
 835               	.LBE213:
 836               	.LM139:
 837 02a4 5095      		com r21
 838 02a6 4095      		com r20
 839 02a8 3095      		com r19
 840 02aa 2195      		neg r18
 841 02ac 3F4F      		sbci r19,lo8(-1)
 842 02ae 4F4F      		sbci r20,lo8(-1)
 843 02b0 5F4F      		sbci r21,lo8(-1)
 844               	.LVL47:
 845               	.L97:
 846               	.LM140:
 847 02b2 CA01      		movw r24,r20
 848 02b4 B901      		movw r22,r18
 849 02b6 0E94 0000 		call Debug_Determine_Digit_Numbers
 850               	.LVL48:
 851               	.LM141:
 852 02ba 0E94 0000 		call Debug_Tx_Number_Digits
 853               	/* epilogue start */
 854               	.LM142:
 855 02be 0895      		ret
 856               	.LFE36:
 858               	.global	Debug_Tx_Number_Hex_Raw
 860               	Debug_Tx_Number_Hex_Raw:
 861               	.LFB37:
 862               	.LM143:
 863               	.LVL49:
 864 02c0 2F92      		push r2
 865 02c2 3F92      		push r3
 866 02c4 4F92      		push r4
 867 02c6 5F92      		push r5
 868 02c8 6F92      		push r6
 869 02ca 7F92      		push r7
 870 02cc 8F92      		push r8
 871 02ce 9F92      		push r9
 872 02d0 AF92      		push r10
 873 02d2 BF92      		push r11
 874 02d4 CF92      		push r12
 875 02d6 DF92      		push r13
 876 02d8 EF92      		push r14
 877 02da FF92      		push r15
 878 02dc 0F93      		push r16
 879 02de 1F93      		push r17
 880 02e0 DF93      		push r29
 881 02e2 CF93      		push r28
 882 02e4 00D0      		rcall .
 883 02e6 00D0      		rcall .
 884 02e8 0F92      		push __tmp_reg__
 885 02ea CDB7      		in r28,__SP_L__
 886 02ec DEB7      		in r29,__SP_H__
 887               	/* prologue: function */
 888               	/* frame size = 5 */
 889 02ee 2983      		std Y+1,r18
 890 02f0 3A83      		std Y+2,r19
 891               	.LVL50:
 892 02f2 4B83      		std Y+3,r20
 893               	.LVL51:
 894 02f4 252E      		mov r2,r21
 895               	.LVL52:
 896 02f6 362E      		mov r3,r22
 897               	.LVL53:
 898 02f8 472E      		mov r4,r23
 899               	.LVL54:
 900 02fa 582E      		mov r5,r24
 901               	.LVL55:
 902 02fc 692E      		mov r6,r25
 903               	.LVL56:
 904               	.LM144:
 905 02fe 9923      		tst r25
 906 0300 01F0      		breq .+2
 907 0302 00C0      		rjmp .L129
 908               	.LVL57:
 909 0304 8823      		tst r24
 910 0306 01F4      		brne .L150
 911               	.LVL58:
 912 0308 7723      		tst r23
 913 030a 01F4      		brne .L149
 914               	.LVL59:
 915 030c 6623      		tst r22
 916 030e 01F4      		brne .L147
 917               	.LVL60:
 918 0310 5523      		tst r21
 919 0312 01F4      		brne .L144
 920               	.LVL61:
 921 0314 4423      		tst r20
 922 0316 01F4      		brne .L140
 923 0318 3323      		tst r19
 924 031a 01F4      		brne .L135
 925 031c 88E0      		ldi r24,lo8(8)
 926 031e 90E0      		ldi r25,hi8(8)
 927               	.LVL62:
 928 0320 9D83      		std Y+5,r25
 929 0322 8C83      		std Y+4,r24
 930               	.LVL63:
 931 0324 E2E0      		ldi r30,lo8(2)
 932 0326 8E2E      		mov r8,r30
 933 0328 912C      		mov r9,__zero_reg__
 934               	.LVL64:
 935 032a 00C0      		rjmp .L104
 936               	.LVL65:
 937               	.L135:
 938               	.LM145:
 939 032c E0E1      		ldi r30,lo8(16)
 940 032e F0E0      		ldi r31,hi8(16)
 941 0330 FD83      		std Y+5,r31
 942 0332 EC83      		std Y+4,r30
 943               	.LVL66:
 944 0334 74E0      		ldi r23,lo8(4)
 945 0336 872E      		mov r8,r23
 946 0338 912C      		mov r9,__zero_reg__
 947               	.LVL67:
 948 033a 00C0      		rjmp .L104
 949               	.LVL68:
 950               	.L140:
 951               	.LM146:
 952 033c 88E1      		ldi r24,lo8(24)
 953 033e 90E0      		ldi r25,hi8(24)
 954               	.LVL69:
 955 0340 9D83      		std Y+5,r25
 956 0342 8C83      		std Y+4,r24
 957               	.LVL70:
 958 0344 66E0      		ldi r22,lo8(6)
 959 0346 862E      		mov r8,r22
 960 0348 912C      		mov r9,__zero_reg__
 961               	.LVL71:
 962 034a 00C0      		rjmp .L104
 963               	.LVL72:
 964               	.L144:
 965               	.LM147:
 966 034c E0E2      		ldi r30,lo8(32)
 967 034e F0E0      		ldi r31,hi8(32)
 968 0350 FD83      		std Y+5,r31
 969 0352 EC83      		std Y+4,r30
 970               	.LVL73:
 971 0354 58E0      		ldi r21,lo8(8)
 972 0356 852E      		mov r8,r21
 973 0358 912C      		mov r9,__zero_reg__
 974               	.LVL74:
 975 035a 00C0      		rjmp .L104
 976               	.LVL75:
 977               	.L147:
 978               	.LM148:
 979 035c 88E2      		ldi r24,lo8(40)
 980 035e 90E0      		ldi r25,hi8(40)
 981               	.LVL76:
 982 0360 9D83      		std Y+5,r25
 983 0362 8C83      		std Y+4,r24
 984               	.LVL77:
 985 0364 4AE0      		ldi r20,lo8(10)
 986 0366 842E      		mov r8,r20
 987 0368 912C      		mov r9,__zero_reg__
 988               	.LVL78:
 989 036a 00C0      		rjmp .L104
 990               	.LVL79:
 991               	.L149:
 992               	.LM149:
 993 036c E0E3      		ldi r30,lo8(48)
 994 036e F0E0      		ldi r31,hi8(48)
 995 0370 FD83      		std Y+5,r31
 996 0372 EC83      		std Y+4,r30
 997               	.LVL80:
 998 0374 3CE0      		ldi r19,lo8(12)
 999 0376 832E      		mov r8,r19
 1000 0378 912C      		mov r9,__zero_reg__
 1001               	.LVL81:
 1002 037a 00C0      		rjmp .L104
 1003               	.LVL82:
 1004               	.L150:
 1005               	.LM150:
 1006 037c 88E3      		ldi r24,lo8(56)
 1007 037e 90E0      		ldi r25,hi8(56)
 1008               	.LVL83:
 1009 0380 9D83      		std Y+5,r25
 1010 0382 8C83      		std Y+4,r24
 1011               	.LVL84:
 1012 0384 2EE0      		ldi r18,lo8(14)
 1013 0386 822E      		mov r8,r18
 1014 0388 912C      		mov r9,__zero_reg__
 1015               	.LVL85:
 1016 038a 00C0      		rjmp .L104
 1017               	.LVL86:
 1018               	.L129:
 1019 038c E0E4      		ldi r30,lo8(64)
 1020 038e F0E0      		ldi r31,hi8(64)
 1021 0390 FD83      		std Y+5,r31
 1022 0392 EC83      		std Y+4,r30
 1023               	.LVL87:
 1024 0394 90E1      		ldi r25,lo8(16)
 1025 0396 892E      		mov r8,r25
 1026 0398 912C      		mov r9,__zero_reg__
 1027               	.LVL88:
 1028               	.L104:
 1029 039a 7724      		clr r7
 1030               	.LVL89:
 1031 039c 00C0      		rjmp .L117
 1032               	.LVL90:
 1033               	.L121:
 1034               	.LBB215:
 1035               	.LM151:
 1036 039e 8C81      		ldd r24,Y+4
 1037 03a0 9D81      		ldd r25,Y+5
 1038               	.LVL91:
 1039 03a2 0497      		sbiw r24,4
 1040 03a4 9D83      		std Y+5,r25
 1041 03a6 8C83      		std Y+4,r24
 1042               	.LVL92:
 1043               	.LM152:
 1044 03a8 2981      		ldd r18,Y+1
 1045               	.LVL93:
 1046 03aa 3A81      		ldd r19,Y+2
 1047               	.LVL94:
 1048 03ac 4B81      		ldd r20,Y+3
 1049               	.LVL95:
 1050 03ae 522D      		mov r21,r2
 1051 03b0 632D      		mov r22,r3
 1052 03b2 742D      		mov r23,r4
 1053 03b4 852D      		mov r24,r5
 1054 03b6 962D      		mov r25,r6
 1055               	.LVL96:
 1056 03b8 0C81      		ldd r16,Y+4
 1057 03ba 0E94 0000 		call __lshrdi3
 1058 03be C901      		movw r24,r18
 1059               	.LVL97:
 1060 03c0 8F70      		andi r24,lo8(15)
 1061 03c2 9070      		andi r25,hi8(15)
 1062               	.LM153:
 1063 03c4 8A30      		cpi r24,10
 1064 03c6 9105      		cpc r25,__zero_reg__
 1065 03c8 00F0      		brlo .L118
 1066               	.LVL98:
 1067               	.LM154:
 1068 03ca C796      		adiw r24,55
 1069               	.LVL99:
 1070 03cc 00C0      		rjmp .L119
 1071               	.L118:
 1072               	.LM155:
 1073 03ce C096      		adiw r24,48
 1074               	.LVL100:
 1075               	.L119:
 1076               	.LBB216:
 1077               	.LBB217:
 1078               	.LM156:
 1079 03d0 8093 C600 		sts 198,r24
 1080               	.L120:
 1081               	.LM157:
 1082 03d4 8091 C000 		lds r24,192
 1083               	.LVL101:
 1084 03d8 85FF      		sbrs r24,5
 1085 03da 00C0      		rjmp .L120
 1086               	.LBE217:
 1087               	.LBE216:
 1088               	.LM158:
 1089 03dc 7394      		inc r7
 1090               	.LVL102:
 1091               	.L117:
 1092 03de 872D      		mov r24,r7
 1093 03e0 90E0      		ldi r25,lo8(0)
 1094               	.LVL103:
 1095 03e2 8815      		cp r24,r8
 1096 03e4 9905      		cpc r25,r9
 1097 03e6 00F0      		brlo .L121
 1098               	.LVL104:
 1099               	/* epilogue start */
 1100               	.LBE215:
 1101               	.LM159:
 1102 03e8 0F90      		pop __tmp_reg__
 1103 03ea 0F90      		pop __tmp_reg__
 1104 03ec 0F90      		pop __tmp_reg__
 1105 03ee 0F90      		pop __tmp_reg__
 1106 03f0 0F90      		pop __tmp_reg__
 1107 03f2 CF91      		pop r28
 1108 03f4 DF91      		pop r29
 1109 03f6 1F91      		pop r17
 1110 03f8 0F91      		pop r16
 1111 03fa FF90      		pop r15
 1112 03fc EF90      		pop r14
 1113 03fe DF90      		pop r13
 1114 0400 CF90      		pop r12
 1115 0402 BF90      		pop r11
 1116 0404 AF90      		pop r10
 1117 0406 9F90      		pop r9
 1118 0408 8F90      		pop r8
 1119               	.LVL105:
 1120 040a 7F90      		pop r7
 1121 040c 6F90      		pop r6
 1122               	.LVL106:
 1123 040e 5F90      		pop r5
 1124               	.LVL107:
 1125 0410 4F90      		pop r4
 1126               	.LVL108:
 1127 0412 3F90      		pop r3
 1128               	.LVL109:
 1129 0414 2F90      		pop r2
 1130               	.LVL110:
 1131 0416 0895      		ret
 1132               	.LFE37:
 1134               	.global	Debug_Tx_Number_Hex
 1136               	Debug_Tx_Number_Hex:
 1137               	.LFB38:
 1138               	.LM160:
 1139               	.LVL111:
 1140               	/* prologue: function */
 1141               	/* frame size = 0 */
 1142 0418 E82F      		mov r30,r24
 1143               	.LVL112:
 1144               	.LBB218:
 1145               	.LBB219:
 1146               	.LM161:
 1147 041a 80E3      		ldi r24,lo8(48)
 1148               	.LVL113:
 1149 041c 8093 C600 		sts 198,r24
 1150               	.L153:
 1151               	.LM162:
 1152 0420 8091 C000 		lds r24,192
 1153 0424 85FF      		sbrs r24,5
 1154 0426 00C0      		rjmp .L153
 1155               	.LBE219:
 1156               	.LBE218:
 1157               	.LBB220:
 1158               	.LBB221:
 1159               	.LM163:
 1160 0428 88E7      		ldi r24,lo8(120)
 1161 042a 8093 C600 		sts 198,r24
 1162               	.L154:
 1163               	.LM164:
 1164 042e 8091 C000 		lds r24,192
 1165 0432 85FF      		sbrs r24,5
 1166 0434 00C0      		rjmp .L154
 1167               	.LBE221:
 1168               	.LBE220:
 1169               	.LM165:
 1170 0436 8E2F      		mov r24,r30
 1171 0438 0E94 0000 		call Debug_Tx_Number_Hex_Raw
 1172               	.LVL114:
 1173               	/* epilogue start */
 1174               	.LM166:
 1175 043c 0895      		ret
 1176               	.LFE38:
 1178               	.global	Debug_Tx_Number_Bin_Raw
 1180               	Debug_Tx_Number_Bin_Raw:
 1181               	.LFB39:
 1182               	.LM167:
 1183               	.LVL115:
 1184 043e 2F92      		push r2
 1185 0440 3F92      		push r3
 1186 0442 4F92      		push r4
 1187 0444 5F92      		push r5
 1188 0446 6F92      		push r6
 1189 0448 7F92      		push r7
 1190 044a 8F92      		push r8
 1191 044c 9F92      		push r9
 1192 044e AF92      		push r10
 1193 0450 BF92      		push r11
 1194 0452 CF92      		push r12
 1195 0454 DF92      		push r13
 1196 0456 EF92      		push r14
 1197 0458 FF92      		push r15
 1198 045a 0F93      		push r16
 1199 045c 1F93      		push r17
 1200 045e DF93      		push r29
 1201 0460 CF93      		push r28
 1202 0462 00D0      		rcall .
 1203 0464 00D0      		rcall .
 1204 0466 00D0      		rcall .
 1205 0468 CDB7      		in r28,__SP_L__
 1206 046a DEB7      		in r29,__SP_H__
 1207               	/* prologue: function */
 1208               	/* frame size = 6 */
 1209 046c 2983      		std Y+1,r18
 1210 046e 3A83      		std Y+2,r19
 1211               	.LVL116:
 1212 0470 4B83      		std Y+3,r20
 1213               	.LVL117:
 1214 0472 5C83      		std Y+4,r21
 1215               	.LVL118:
 1216 0474 1B01      		movw r2,r22
 1217 0476 2C01      		movw r4,r24
 1218               	.LM168:
 1219 0478 5520      		tst r5
 1220               	.LVL119:
 1221 047a 01F4      		brne .L186
 1222 047c 8823      		tst r24
 1223               	.LVL120:
 1224 047e 01F4      		brne .L207
 1225 0480 3320      		tst r3
 1226               	.LVL121:
 1227 0482 01F4      		brne .L206
 1228 0484 6623      		tst r22
 1229               	.LVL122:
 1230 0486 01F4      		brne .L204
 1231 0488 5523      		tst r21
 1232 048a 01F4      		brne .L201
 1233 048c 4423      		tst r20
 1234 048e 01F4      		brne .L197
 1235 0490 3323      		tst r19
 1236 0492 01F4      		brne .L192
 1237 0494 07E0      		ldi r16,lo8(7)
 1238               	.LVL123:
 1239 0496 00C0      		rjmp .L161
 1240               	.LVL124:
 1241               	.L192:
 1242               	.LM169:
 1243 0498 0FE0      		ldi r16,lo8(15)
 1244               	.LVL125:
 1245 049a 00C0      		rjmp .L161
 1246               	.LVL126:
 1247               	.L197:
 1248               	.LM170:
 1249 049c 07E1      		ldi r16,lo8(23)
 1250               	.LVL127:
 1251 049e 00C0      		rjmp .L161
 1252               	.LVL128:
 1253               	.L201:
 1254               	.LM171:
 1255 04a0 0FE1      		ldi r16,lo8(31)
 1256               	.LVL129:
 1257 04a2 00C0      		rjmp .L161
 1258               	.LVL130:
 1259               	.L204:
 1260               	.LM172:
 1261 04a4 07E2      		ldi r16,lo8(39)
 1262               	.LVL131:
 1263 04a6 00C0      		rjmp .L161
 1264               	.LVL132:
 1265               	.L206:
 1266               	.LM173:
 1267 04a8 0FE2      		ldi r16,lo8(47)
 1268               	.LVL133:
 1269 04aa 00C0      		rjmp .L161
 1270               	.LVL134:
 1271               	.L207:
 1272               	.LM174:
 1273 04ac 07E3      		ldi r16,lo8(55)
 1274               	.LVL135:
 1275 04ae 00C0      		rjmp .L161
 1276               	.LVL136:
 1277               	.L186:
 1278 04b0 0FE3      		ldi r16,lo8(63)
 1279               	.LVL137:
 1280               	.L161:
 1281 04b2 1E82      		std Y+6,__zero_reg__
 1282 04b4 1D82      		std Y+5,__zero_reg__
 1283               	.LM175:
 1284 04b6 802E      		mov r8,r16
 1285 04b8 9924      		clr r9
 1286               	.LBB222:
 1287               	.LM176:
 1288 04ba 3401      		movw r6,r8
 1289 04bc 0894      		sec
 1290 04be 611C      		adc r6,__zero_reg__
 1291 04c0 711C      		adc r7,__zero_reg__
 1292               	.L178:
 1293               	.LM177:
 1294 04c2 8401      		movw r16,r8
 1295               	.LVL138:
 1296 04c4 8D81      		ldd r24,Y+5
 1297 04c6 9E81      		ldd r25,Y+6
 1298               	.LVL139:
 1299 04c8 081B      		sub r16,r24
 1300 04ca 190B      		sbc r17,r25
 1301 04cc 2981      		ldd r18,Y+1
 1302               	.LVL140:
 1303 04ce 3A81      		ldd r19,Y+2
 1304               	.LVL141:
 1305 04d0 4B81      		ldd r20,Y+3
 1306               	.LVL142:
 1307 04d2 5C81      		ldd r21,Y+4
 1308               	.LVL143:
 1309 04d4 B101      		movw r22,r2
 1310               	.LVL144:
 1311 04d6 C201      		movw r24,r4
 1312 04d8 0E94 0000 		call __lshrdi3
 1313 04dc C901      		movw r24,r18
 1314 04de 8170      		andi r24,lo8(1)
 1315 04e0 9070      		andi r25,hi8(1)
 1316 04e2 892B      		or r24,r25
 1317 04e4 01F0      		breq .L174
 1318               	.LBB223:
 1319               	.LBB224:
 1320               	.LM178:
 1321 04e6 91E3      		ldi r25,lo8(49)
 1322 04e8 9093 C600 		sts 198,r25
 1323               	.L175:
 1324               	.LM179:
 1325 04ec 8091 C000 		lds r24,192
 1326 04f0 85FF      		sbrs r24,5
 1327 04f2 00C0      		rjmp .L175
 1328 04f4 00C0      		rjmp .L176
 1329               	.L174:
 1330               	.LBE224:
 1331               	.LBE223:
 1332               	.LBB225:
 1333               	.LBB226:
 1334               	.LM180:
 1335 04f6 E0E3      		ldi r30,lo8(48)
 1336 04f8 E093 C600 		sts 198,r30
 1337               	.L177:
 1338               	.LM181:
 1339 04fc 8091 C000 		lds r24,192
 1340 0500 85FF      		sbrs r24,5
 1341 0502 00C0      		rjmp .L177
 1342               	.L176:
 1343 0504 8D81      		ldd r24,Y+5
 1344 0506 9E81      		ldd r25,Y+6
 1345 0508 0196      		adiw r24,1
 1346 050a 9E83      		std Y+6,r25
 1347 050c 8D83      		std Y+5,r24
 1348               	.LBE226:
 1349               	.LBE225:
 1350               	.LM182:
 1351 050e 8615      		cp r24,r6
 1352 0510 9705      		cpc r25,r7
 1353 0512 01F4      		brne .L178
 1354               	/* epilogue start */
 1355               	.LBE222:
 1356               	.LM183:
 1357 0514 2696      		adiw r28,6
 1358 0516 0FB6      		in __tmp_reg__,__SREG__
 1359 0518 F894      		cli
 1360 051a DEBF      		out __SP_H__,r29
 1361 051c 0FBE      		out __SREG__,__tmp_reg__
 1362 051e CDBF      		out __SP_L__,r28
 1363 0520 CF91      		pop r28
 1364 0522 DF91      		pop r29
 1365 0524 1F91      		pop r17
 1366 0526 0F91      		pop r16
 1367 0528 FF90      		pop r15
 1368 052a EF90      		pop r14
 1369 052c DF90      		pop r13
 1370 052e CF90      		pop r12
 1371 0530 BF90      		pop r11
 1372 0532 AF90      		pop r10
 1373 0534 9F90      		pop r9
 1374 0536 8F90      		pop r8
 1375 0538 7F90      		pop r7
 1376 053a 6F90      		pop r6
 1377 053c 5F90      		pop r5
 1378               	.LVL145:
 1379 053e 4F90      		pop r4
 1380 0540 3F90      		pop r3
 1381               	.LVL146:
 1382 0542 2F90      		pop r2
 1383 0544 0895      		ret
 1384               	.LFE39:
 1386               	.global	Debug_Tx_Number_Bin
 1388               	Debug_Tx_Number_Bin:
 1389               	.LFB40:
 1390               	.LM184:
 1391               	.LVL147:
 1392               	/* prologue: function */
 1393               	/* frame size = 0 */
 1394 0546 E82F      		mov r30,r24
 1395               	.LVL148:
 1396               	.LBB227:
 1397               	.LBB228:
 1398               	.LM185:
 1399 0548 80E3      		ldi r24,lo8(48)
 1400               	.LVL149:
 1401 054a 8093 C600 		sts 198,r24
 1402               	.L212:
 1403               	.LM186:
 1404 054e 8091 C000 		lds r24,192
 1405 0552 85FF      		sbrs r24,5
 1406 0554 00C0      		rjmp .L212
 1407               	.LBE228:
 1408               	.LBE227:
 1409               	.LBB229:
 1410               	.LBB230:
 1411               	.LM187:
 1412 0556 82E6      		ldi r24,lo8(98)
 1413 0558 8093 C600 		sts 198,r24
 1414               	.L213:
 1415               	.LM188:
 1416 055c 8091 C000 		lds r24,192
 1417 0560 85FF      		sbrs r24,5
 1418 0562 00C0      		rjmp .L213
 1419               	.LBE230:
 1420               	.LBE229:
 1421               	.LM189:
 1422 0564 8E2F      		mov r24,r30
 1423 0566 0E94 0000 		call Debug_Tx_Number_Bin_Raw
 1424               	.LVL150:
 1425               	/* epilogue start */
 1426               	.LM190:
 1427 056a 0895      		ret
 1428               	.LFE40:
 1430               	.global	Debug_Tx_Number_NL
 1432               	Debug_Tx_Number_NL:
 1433               	.LFB41:
 1434               	.LM191:
 1435               	.LVL151:
 1436               	/* prologue: function */
 1437               	/* frame size = 0 */
 1438               	.LM192:
 1439 056c 0E94 0000 		call Debug_Tx_Number
 1440               	.LVL152:
 1441               	.LM193:
 1442 0570 0E94 0000 		call Debug_Tx_NL
 1443               	/* epilogue start */
 1444               	.LM194:
 1445 0574 0895      		ret
 1446               	.LFE41:
 1448               	.global	Debug_Tx_Number_SP
 1450               	Debug_Tx_Number_SP:
 1451               	.LFB42:
 1452               	.LM195:
 1453               	.LVL153:
 1454               	/* prologue: function */
 1455               	/* frame size = 0 */
 1456               	.LM196:
 1457 0576 0E94 0000 		call Debug_Tx_Number
 1458               	.LVL154:
 1459               	.LBB231:
 1460               	.LBB232:
 1461               	.LBB233:
 1462               	.LBB234:
 1463               	.LM197:
 1464 057a 80E2      		ldi r24,lo8(32)
 1465 057c 8093 C600 		sts 198,r24
 1466               	.L220:
 1467               	.LM198:
 1468 0580 8091 C000 		lds r24,192
 1469 0584 85FF      		sbrs r24,5
 1470 0586 00C0      		rjmp .L220
 1471               	/* epilogue start */
 1472               	.LBE234:
 1473               	.LBE233:
 1474               	.LBE232:
 1475               	.LBE231:
 1476               	.LM199:
 1477 0588 0895      		ret
 1478               	.LFE42:
 1480               	.global	Debug_Tx_Number_CM
 1482               	Debug_Tx_Number_CM:
 1483               	.LFB43:
 1484               	.LM200:
 1485               	.LVL155:
 1486               	/* prologue: function */
 1487               	/* frame size = 0 */
 1488               	.LM201:
 1489 058a 0E94 0000 		call Debug_Tx_Number
 1490               	.LVL156:
 1491               	.LBB235:
 1492               	.LBB236:
 1493               	.LBB237:
 1494               	.LBB238:
 1495               	.LM202:
 1496 058e 8CE2      		ldi r24,lo8(44)
 1497 0590 8093 C600 		sts 198,r24
 1498               	.L224:
 1499               	.LM203:
 1500 0594 8091 C000 		lds r24,192
 1501 0598 85FF      		sbrs r24,5
 1502 059a 00C0      		rjmp .L224
 1503               	/* epilogue start */
 1504               	.LBE238:
 1505               	.LBE237:
 1506               	.LBE236:
 1507               	.LBE235:
 1508               	.LM204:
 1509 059c 0895      		ret
 1510               	.LFE43:
 1512               	.global	Debug_Tx_Number_Hex_NL
 1514               	Debug_Tx_Number_Hex_NL:
 1515               	.LFB44:
 1516               	.LM205:
 1517               	.LVL157:
 1518               	/* prologue: function */
 1519               	/* frame size = 0 */
 1520               	.LM206:
 1521 059e 0E94 0000 		call Debug_Tx_Number_Hex
 1522               	.LVL158:
 1523               	.LM207:
 1524 05a2 0E94 0000 		call Debug_Tx_NL
 1525               	/* epilogue start */
 1526               	.LM208:
 1527 05a6 0895      		ret
 1528               	.LFE44:
 1530               	.global	Debug_Tx_Number_Hex_SP
 1532               	Debug_Tx_Number_Hex_SP:
 1533               	.LFB45:
 1534               	.LM209:
 1535               	.LVL159:
 1536               	/* prologue: function */
 1537               	/* frame size = 0 */
 1538               	.LM210:
 1539 05a8 0E94 0000 		call Debug_Tx_Number_Hex
 1540               	.LVL160:
 1541               	.LBB239:
 1542               	.LBB240:
 1543               	.LBB241:
 1544               	.LBB242:
 1545               	.LM211:
 1546 05ac 80E2      		ldi r24,lo8(32)
 1547 05ae 8093 C600 		sts 198,r24
 1548               	.L230:
 1549               	.LM212:
 1550 05b2 8091 C000 		lds r24,192
 1551 05b6 85FF      		sbrs r24,5
 1552 05b8 00C0      		rjmp .L230
 1553               	/* epilogue start */
 1554               	.LBE242:
 1555               	.LBE241:
 1556               	.LBE240:
 1557               	.LBE239:
 1558               	.LM213:
 1559 05ba 0895      		ret
 1560               	.LFE45:
 1562               	.global	Debug_Tx_Number_Hex_CM
 1564               	Debug_Tx_Number_Hex_CM:
 1565               	.LFB46:
 1566               	.LM214:
 1567               	.LVL161:
 1568               	/* prologue: function */
 1569               	/* frame size = 0 */
 1570               	.LM215:
 1571 05bc 0E94 0000 		call Debug_Tx_Number_Hex
 1572               	.LVL162:
 1573               	.LBB243:
 1574               	.LBB244:
 1575               	.LBB245:
 1576               	.LBB246:
 1577               	.LM216:
 1578 05c0 8CE2      		ldi r24,lo8(44)
 1579 05c2 8093 C600 		sts 198,r24
 1580               	.L234:
 1581               	.LM217:
 1582 05c6 8091 C000 		lds r24,192
 1583 05ca 85FF      		sbrs r24,5
 1584 05cc 00C0      		rjmp .L234
 1585               	/* epilogue start */
 1586               	.LBE246:
 1587               	.LBE245:
 1588               	.LBE244:
 1589               	.LBE243:
 1590               	.LM218:
 1591 05ce 0895      		ret
 1592               	.LFE46:
 1594               	.global	Debug_Tx_Number_Bin_NL
 1596               	Debug_Tx_Number_Bin_NL:
 1597               	.LFB47:
 1598               	.LM219:
 1599               	.LVL163:
 1600               	/* prologue: function */
 1601               	/* frame size = 0 */
 1602               	.LM220:
 1603 05d0 0E94 0000 		call Debug_Tx_Number_Bin
 1604               	.LVL164:
 1605               	.LM221:
 1606 05d4 0E94 0000 		call Debug_Tx_NL
 1607               	/* epilogue start */
 1608               	.LM222:
 1609 05d8 0895      		ret
 1610               	.LFE47:
 1612               	.global	Debug_Tx_Number_Bin_SP
 1614               	Debug_Tx_Number_Bin_SP:
 1615               	.LFB48:
 1616               	.LM223:
 1617               	.LVL165:
 1618               	/* prologue: function */
 1619               	/* frame size = 0 */
 1620               	.LM224:
 1621 05da 0E94 0000 		call Debug_Tx_Number_Bin
 1622               	.LVL166:
 1623               	.LBB247:
 1624               	.LBB248:
 1625               	.LBB249:
 1626               	.LBB250:
 1627               	.LM225:
 1628 05de 80E2      		ldi r24,lo8(32)
 1629 05e0 8093 C600 		sts 198,r24
 1630               	.L240:
 1631               	.LM226:
 1632 05e4 8091 C000 		lds r24,192
 1633 05e8 85FF      		sbrs r24,5
 1634 05ea 00C0      		rjmp .L240
 1635               	/* epilogue start */
 1636               	.LBE250:
 1637               	.LBE249:
 1638               	.LBE248:
 1639               	.LBE247:
 1640               	.LM227:
 1641 05ec 0895      		ret
 1642               	.LFE48:
 1644               	.global	Debug_Tx_Number_Bin_CM
 1646               	Debug_Tx_Number_Bin_CM:
 1647               	.LFB49:
 1648               	.LM228:
 1649               	.LVL167:
 1650               	/* prologue: function */
 1651               	/* frame size = 0 */
 1652               	.LM229:
 1653 05ee 0E94 0000 		call Debug_Tx_Number_Bin
 1654               	.LVL168:
 1655               	.LBB251:
 1656               	.LBB252:
 1657               	.LBB253:
 1658               	.LBB254:
 1659               	.LM230:
 1660 05f2 8CE2      		ldi r24,lo8(44)
 1661 05f4 8093 C600 		sts 198,r24
 1662               	.L244:
 1663               	.LM231:
 1664 05f8 8091 C000 		lds r24,192
 1665 05fc 85FF      		sbrs r24,5
 1666 05fe 00C0      		rjmp .L244
 1667               	/* epilogue start */
 1668               	.LBE254:
 1669               	.LBE253:
 1670               	.LBE252:
 1671               	.LBE251:
 1672               	.LM232:
 1673 0600 0895      		ret
 1674               	.LFE49:
 1676               	.global	Debug_Tx_Parameter_NL
 1678               	Debug_Tx_Parameter_NL:
 1679               	.LFB50:
 1680               	.LM233:
 1681               	.LVL169:
 1682 0602 EF92      		push r14
 1683 0604 FF92      		push r15
 1684 0606 0F93      		push r16
 1685 0608 1F93      		push r17
 1686               	/* prologue: function */
 1687               	/* frame size = 0 */
 1688 060a 7A01      		movw r14,r20
 1689 060c 8B01      		movw r16,r22
 1690               	.LM234:
 1691 060e 0E94 0000 		call Debug_Tx_Text
 1692               	.LVL170:
 1693               	.LBB255:
 1694               	.LBB256:
 1695               	.LBB257:
 1696               	.LBB258:
 1697               	.LM235:
 1698 0612 80E2      		ldi r24,lo8(32)
 1699 0614 8093 C600 		sts 198,r24
 1700               	.L248:
 1701               	.LM236:
 1702 0618 8091 C000 		lds r24,192
 1703 061c 85FF      		sbrs r24,5
 1704 061e 00C0      		rjmp .L248
 1705               	.LBE258:
 1706               	.LBE257:
 1707               	.LBE256:
 1708               	.LBE255:
 1709               	.LM237:
 1710 0620 C801      		movw r24,r16
 1711 0622 B701      		movw r22,r14
 1712 0624 0E94 0000 		call Debug_Tx_Number_NL
 1713               	/* epilogue start */
 1714               	.LM238:
 1715 0628 1F91      		pop r17
 1716 062a 0F91      		pop r16
 1717 062c FF90      		pop r15
 1718 062e EF90      		pop r14
 1719               	.LVL171:
 1720 0630 0895      		ret
 1721               	.LFE50:
 1723               	.global	Debug_Tx_Parameter_SP
 1725               	Debug_Tx_Parameter_SP:
 1726               	.LFB51:
 1727               	.LM239:
 1728               	.LVL172:
 1729 0632 EF92      		push r14
 1730 0634 FF92      		push r15
 1731 0636 0F93      		push r16
 1732 0638 1F93      		push r17
 1733               	/* prologue: function */
 1734               	/* frame size = 0 */
 1735 063a 7A01      		movw r14,r20
 1736 063c 8B01      		movw r16,r22
 1737               	.LM240:
 1738 063e 0E94 0000 		call Debug_Tx_Text
 1739               	.LVL173:
 1740               	.LBB259:
 1741               	.LBB260:
 1742               	.LBB261:
 1743               	.LBB262:
 1744               	.LM241:
 1745 0642 80E2      		ldi r24,lo8(32)
 1746 0644 8093 C600 		sts 198,r24
 1747               	.L252:
 1748               	.LM242:
 1749 0648 8091 C000 		lds r24,192
 1750 064c 85FF      		sbrs r24,5
 1751 064e 00C0      		rjmp .L252
 1752               	.LBE262:
 1753               	.LBE261:
 1754               	.LBE260:
 1755               	.LBE259:
 1756               	.LM243:
 1757 0650 C801      		movw r24,r16
 1758 0652 B701      		movw r22,r14
 1759 0654 0E94 0000 		call Debug_Tx_Number_SP
 1760               	/* epilogue start */
 1761               	.LM244:
 1762 0658 1F91      		pop r17
 1763 065a 0F91      		pop r16
 1764 065c FF90      		pop r15
 1765 065e EF90      		pop r14
 1766               	.LVL174:
 1767 0660 0895      		ret
 1768               	.LFE51:
 1770               	.global	Debug_Tx_Parameter_CM
 1772               	Debug_Tx_Parameter_CM:
 1773               	.LFB52:
 1774               	.LM245:
 1775               	.LVL175:
 1776 0662 EF92      		push r14
 1777 0664 FF92      		push r15
 1778 0666 0F93      		push r16
 1779 0668 1F93      		push r17
 1780               	/* prologue: function */
 1781               	/* frame size = 0 */
 1782 066a 7A01      		movw r14,r20
 1783 066c 8B01      		movw r16,r22
 1784               	.LM246:
 1785 066e 0E94 0000 		call Debug_Tx_Text
 1786               	.LVL176:
 1787               	.LBB263:
 1788               	.LBB264:
 1789               	.LBB265:
 1790               	.LBB266:
 1791               	.LM247:
 1792 0672 80E2      		ldi r24,lo8(32)
 1793 0674 8093 C600 		sts 198,r24
 1794               	.L256:
 1795               	.LM248:
 1796 0678 8091 C000 		lds r24,192
 1797 067c 85FF      		sbrs r24,5
 1798 067e 00C0      		rjmp .L256
 1799               	.LBE266:
 1800               	.LBE265:
 1801               	.LBE264:
 1802               	.LBE263:
 1803               	.LM249:
 1804 0680 C801      		movw r24,r16
 1805 0682 B701      		movw r22,r14
 1806 0684 0E94 0000 		call Debug_Tx_Number_CM
 1807               	/* epilogue start */
 1808               	.LM250:
 1809 0688 1F91      		pop r17
 1810 068a 0F91      		pop r16
 1811 068c FF90      		pop r15
 1812 068e EF90      		pop r14
 1813               	.LVL177:
 1814 0690 0895      		ret
 1815               	.LFE52:
 1817               	.global	Debug_Tx_Parameter_Hex_NL
 1819               	Debug_Tx_Parameter_Hex_NL:
 1820               	.LFB53:
 1821               	.LM251:
 1822               	.LVL178:
 1823 0692 AF92      		push r10
 1824 0694 BF92      		push r11
 1825 0696 CF92      		push r12
 1826 0698 DF92      		push r13
 1827 069a EF92      		push r14
 1828 069c FF92      		push r15
 1829 069e 0F93      		push r16
 1830               	.LVL179:
 1831 06a0 1F93      		push r17
 1832               	/* prologue: function */
 1833               	/* frame size = 0 */
 1834 06a2 F22E      		mov r15,r18
 1835               	.LVL180:
 1836 06a4 E32E      		mov r14,r19
 1837               	.LVL181:
 1838 06a6 D42E      		mov r13,r20
 1839               	.LVL182:
 1840 06a8 C52E      		mov r12,r21
 1841               	.LVL183:
 1842 06aa B62E      		mov r11,r22
 1843               	.LVL184:
 1844 06ac A72E      		mov r10,r23
 1845               	.LVL185:
 1846               	.LM252:
 1847 06ae 0E94 0000 		call Debug_Tx_Text
 1848               	.LVL186:
 1849               	.LBB267:
 1850               	.LBB268:
 1851               	.LBB269:
 1852               	.LBB270:
 1853               	.LM253:
 1854 06b2 80E2      		ldi r24,lo8(32)
 1855 06b4 8093 C600 		sts 198,r24
 1856               	.L260:
 1857               	.LM254:
 1858 06b8 8091 C000 		lds r24,192
 1859 06bc 85FF      		sbrs r24,5
 1860 06be 00C0      		rjmp .L260
 1861               	.LBE270:
 1862               	.LBE269:
 1863               	.LBE268:
 1864               	.LBE267:
 1865               	.LM255:
 1866 06c0 9801      		movw r18,r16
 1867 06c2 4F2D      		mov r20,r15
 1868 06c4 5E2D      		mov r21,r14
 1869 06c6 6D2D      		mov r22,r13
 1870 06c8 7C2D      		mov r23,r12
 1871 06ca 8B2D      		mov r24,r11
 1872 06cc 9A2D      		mov r25,r10
 1873 06ce 0E94 0000 		call Debug_Tx_Number_Hex_NL
 1874               	/* epilogue start */
 1875               	.LM256:
 1876 06d2 1F91      		pop r17
 1877 06d4 0F91      		pop r16
 1878 06d6 FF90      		pop r15
 1879               	.LVL187:
 1880 06d8 EF90      		pop r14
 1881               	.LVL188:
 1882 06da DF90      		pop r13
 1883               	.LVL189:
 1884 06dc CF90      		pop r12
 1885               	.LVL190:
 1886 06de BF90      		pop r11
 1887               	.LVL191:
 1888 06e0 AF90      		pop r10
 1889               	.LVL192:
 1890 06e2 0895      		ret
 1891               	.LFE53:
 1893               	.global	Debug_Tx_Parameter_Hex_SP
 1895               	Debug_Tx_Parameter_Hex_SP:
 1896               	.LFB54:
 1897               	.LM257:
 1898               	.LVL193:
 1899 06e4 AF92      		push r10
 1900 06e6 BF92      		push r11
 1901 06e8 CF92      		push r12
 1902 06ea DF92      		push r13
 1903 06ec EF92      		push r14
 1904 06ee FF92      		push r15
 1905 06f0 0F93      		push r16
 1906               	.LVL194:
 1907 06f2 1F93      		push r17
 1908               	/* prologue: function */
 1909               	/* frame size = 0 */
 1910 06f4 F22E      		mov r15,r18
 1911               	.LVL195:
 1912 06f6 E32E      		mov r14,r19
 1913               	.LVL196:
 1914 06f8 D42E      		mov r13,r20
 1915               	.LVL197:
 1916 06fa C52E      		mov r12,r21
 1917               	.LVL198:
 1918 06fc B62E      		mov r11,r22
 1919               	.LVL199:
 1920 06fe A72E      		mov r10,r23
 1921               	.LVL200:
 1922               	.LM258:
 1923 0700 0E94 0000 		call Debug_Tx_Text
 1924               	.LVL201:
 1925               	.LBB271:
 1926               	.LBB272:
 1927               	.LBB273:
 1928               	.LBB274:
 1929               	.LM259:
 1930 0704 80E2      		ldi r24,lo8(32)
 1931 0706 8093 C600 		sts 198,r24
 1932               	.L264:
 1933               	.LM260:
 1934 070a 8091 C000 		lds r24,192
 1935 070e 85FF      		sbrs r24,5
 1936 0710 00C0      		rjmp .L264
 1937               	.LBE274:
 1938               	.LBE273:
 1939               	.LBE272:
 1940               	.LBE271:
 1941               	.LM261:
 1942 0712 9801      		movw r18,r16
 1943 0714 4F2D      		mov r20,r15
 1944 0716 5E2D      		mov r21,r14
 1945 0718 6D2D      		mov r22,r13
 1946 071a 7C2D      		mov r23,r12
 1947 071c 8B2D      		mov r24,r11
 1948 071e 9A2D      		mov r25,r10
 1949 0720 0E94 0000 		call Debug_Tx_Number_Hex_SP
 1950               	/* epilogue start */
 1951               	.LM262:
 1952 0724 1F91      		pop r17
 1953 0726 0F91      		pop r16
 1954 0728 FF90      		pop r15
 1955               	.LVL202:
 1956 072a EF90      		pop r14
 1957               	.LVL203:
 1958 072c DF90      		pop r13
 1959               	.LVL204:
 1960 072e CF90      		pop r12
 1961               	.LVL205:
 1962 0730 BF90      		pop r11
 1963               	.LVL206:
 1964 0732 AF90      		pop r10
 1965               	.LVL207:
 1966 0734 0895      		ret
 1967               	.LFE54:
 1969               	.global	Debug_Tx_Parameter_Hex_CM
 1971               	Debug_Tx_Parameter_Hex_CM:
 1972               	.LFB55:
 1973               	.LM263:
 1974               	.LVL208:
 1975 0736 AF92      		push r10
 1976 0738 BF92      		push r11
 1977 073a CF92      		push r12
 1978 073c DF92      		push r13
 1979 073e EF92      		push r14
 1980 0740 FF92      		push r15
 1981 0742 0F93      		push r16
 1982               	.LVL209:
 1983 0744 1F93      		push r17
 1984               	/* prologue: function */
 1985               	/* frame size = 0 */
 1986 0746 F22E      		mov r15,r18
 1987               	.LVL210:
 1988 0748 E32E      		mov r14,r19
 1989               	.LVL211:
 1990 074a D42E      		mov r13,r20
 1991               	.LVL212:
 1992 074c C52E      		mov r12,r21
 1993               	.LVL213:
 1994 074e B62E      		mov r11,r22
 1995               	.LVL214:
 1996 0750 A72E      		mov r10,r23
 1997               	.LVL215:
 1998               	.LM264:
 1999 0752 0E94 0000 		call Debug_Tx_Text
 2000               	.LVL216:
 2001               	.LBB275:
 2002               	.LBB276:
 2003               	.LBB277:
 2004               	.LBB278:
 2005               	.LM265:
 2006 0756 80E2      		ldi r24,lo8(32)
 2007 0758 8093 C600 		sts 198,r24
 2008               	.L268:
 2009               	.LM266:
 2010 075c 8091 C000 		lds r24,192
 2011 0760 85FF      		sbrs r24,5
 2012 0762 00C0      		rjmp .L268
 2013               	.LBE278:
 2014               	.LBE277:
 2015               	.LBE276:
 2016               	.LBE275:
 2017               	.LM267:
 2018 0764 9801      		movw r18,r16
 2019 0766 4F2D      		mov r20,r15
 2020 0768 5E2D      		mov r21,r14
 2021 076a 6D2D      		mov r22,r13
 2022 076c 7C2D      		mov r23,r12
 2023 076e 8B2D      		mov r24,r11
 2024 0770 9A2D      		mov r25,r10
 2025 0772 0E94 0000 		call Debug_Tx_Number_Hex_CM
 2026               	/* epilogue start */
 2027               	.LM268:
 2028 0776 1F91      		pop r17
 2029 0778 0F91      		pop r16
 2030 077a FF90      		pop r15
 2031               	.LVL217:
 2032 077c EF90      		pop r14
 2033               	.LVL218:
 2034 077e DF90      		pop r13
 2035               	.LVL219:
 2036 0780 CF90      		pop r12
 2037               	.LVL220:
 2038 0782 BF90      		pop r11
 2039               	.LVL221:
 2040 0784 AF90      		pop r10
 2041               	.LVL222:
 2042 0786 0895      		ret
 2043               	.LFE55:
 2045               	.global	Debug_Tx_Parameter_Bin_NL
 2047               	Debug_Tx_Parameter_Bin_NL:
 2048               	.LFB56:
 2049               	.LM269:
 2050               	.LVL223:
 2051 0788 AF92      		push r10
 2052 078a BF92      		push r11
 2053 078c CF92      		push r12
 2054 078e DF92      		push r13
 2055 0790 EF92      		push r14
 2056 0792 FF92      		push r15
 2057 0794 0F93      		push r16
 2058               	.LVL224:
 2059 0796 1F93      		push r17
 2060               	/* prologue: function */
 2061               	/* frame size = 0 */
 2062 0798 F22E      		mov r15,r18
 2063               	.LVL225:
 2064 079a E32E      		mov r14,r19
 2065               	.LVL226:
 2066 079c D42E      		mov r13,r20
 2067               	.LVL227:
 2068 079e C52E      		mov r12,r21
 2069               	.LVL228:
 2070 07a0 B62E      		mov r11,r22
 2071               	.LVL229:
 2072 07a2 A72E      		mov r10,r23
 2073               	.LVL230:
 2074               	.LM270:
 2075 07a4 0E94 0000 		call Debug_Tx_Text
 2076               	.LVL231:
 2077               	.LBB279:
 2078               	.LBB280:
 2079               	.LBB281:
 2080               	.LBB282:
 2081               	.LM271:
 2082 07a8 80E2      		ldi r24,lo8(32)
 2083 07aa 8093 C600 		sts 198,r24
 2084               	.L272:
 2085               	.LM272:
 2086 07ae 8091 C000 		lds r24,192
 2087 07b2 85FF      		sbrs r24,5
 2088 07b4 00C0      		rjmp .L272
 2089               	.LBE282:
 2090               	.LBE281:
 2091               	.LBE280:
 2092               	.LBE279:
 2093               	.LM273:
 2094 07b6 9801      		movw r18,r16
 2095 07b8 4F2D      		mov r20,r15
 2096 07ba 5E2D      		mov r21,r14
 2097 07bc 6D2D      		mov r22,r13
 2098 07be 7C2D      		mov r23,r12
 2099 07c0 8B2D      		mov r24,r11
 2100 07c2 9A2D      		mov r25,r10
 2101 07c4 0E94 0000 		call Debug_Tx_Number_Bin_NL
 2102               	/* epilogue start */
 2103               	.LM274:
 2104 07c8 1F91      		pop r17
 2105 07ca 0F91      		pop r16
 2106 07cc FF90      		pop r15
 2107               	.LVL232:
 2108 07ce EF90      		pop r14
 2109               	.LVL233:
 2110 07d0 DF90      		pop r13
 2111               	.LVL234:
 2112 07d2 CF90      		pop r12
 2113               	.LVL235:
 2114 07d4 BF90      		pop r11
 2115               	.LVL236:
 2116 07d6 AF90      		pop r10
 2117               	.LVL237:
 2118 07d8 0895      		ret
 2119               	.LFE56:
 2121               	.global	Debug_Tx_Parameter_Bin_SP
 2123               	Debug_Tx_Parameter_Bin_SP:
 2124               	.LFB57:
 2125               	.LM275:
 2126               	.LVL238:
 2127 07da AF92      		push r10
 2128 07dc BF92      		push r11
 2129 07de CF92      		push r12
 2130 07e0 DF92      		push r13
 2131 07e2 EF92      		push r14
 2132 07e4 FF92      		push r15
 2133 07e6 0F93      		push r16
 2134               	.LVL239:
 2135 07e8 1F93      		push r17
 2136               	/* prologue: function */
 2137               	/* frame size = 0 */
 2138 07ea F22E      		mov r15,r18
 2139               	.LVL240:
 2140 07ec E32E      		mov r14,r19
 2141               	.LVL241:
 2142 07ee D42E      		mov r13,r20
 2143               	.LVL242:
 2144 07f0 C52E      		mov r12,r21
 2145               	.LVL243:
 2146 07f2 B62E      		mov r11,r22
 2147               	.LVL244:
 2148 07f4 A72E      		mov r10,r23
 2149               	.LVL245:
 2150               	.LM276:
 2151 07f6 0E94 0000 		call Debug_Tx_Text
 2152               	.LVL246:
 2153               	.LBB283:
 2154               	.LBB284:
 2155               	.LBB285:
 2156               	.LBB286:
 2157               	.LM277:
 2158 07fa 80E2      		ldi r24,lo8(32)
 2159 07fc 8093 C600 		sts 198,r24
 2160               	.L276:
 2161               	.LM278:
 2162 0800 8091 C000 		lds r24,192
 2163 0804 85FF      		sbrs r24,5
 2164 0806 00C0      		rjmp .L276
 2165               	.LBE286:
 2166               	.LBE285:
 2167               	.LBE284:
 2168               	.LBE283:
 2169               	.LM279:
 2170 0808 9801      		movw r18,r16
 2171 080a 4F2D      		mov r20,r15
 2172 080c 5E2D      		mov r21,r14
 2173 080e 6D2D      		mov r22,r13
 2174 0810 7C2D      		mov r23,r12
 2175 0812 8B2D      		mov r24,r11
 2176 0814 9A2D      		mov r25,r10
 2177 0816 0E94 0000 		call Debug_Tx_Number_Bin_SP
 2178               	/* epilogue start */
 2179               	.LM280:
 2180 081a 1F91      		pop r17
 2181 081c 0F91      		pop r16
 2182 081e FF90      		pop r15
 2183               	.LVL247:
 2184 0820 EF90      		pop r14
 2185               	.LVL248:
 2186 0822 DF90      		pop r13
 2187               	.LVL249:
 2188 0824 CF90      		pop r12
 2189               	.LVL250:
 2190 0826 BF90      		pop r11
 2191               	.LVL251:
 2192 0828 AF90      		pop r10
 2193               	.LVL252:
 2194 082a 0895      		ret
 2195               	.LFE57:
 2197               	.global	Debug_Tx_Parameter_Bin_CM
 2199               	Debug_Tx_Parameter_Bin_CM:
 2200               	.LFB58:
 2201               	.LM281:
 2202               	.LVL253:
 2203 082c AF92      		push r10
 2204 082e BF92      		push r11
 2205 0830 CF92      		push r12
 2206 0832 DF92      		push r13
 2207 0834 EF92      		push r14
 2208 0836 FF92      		push r15
 2209 0838 0F93      		push r16
 2210               	.LVL254:
 2211 083a 1F93      		push r17
 2212               	/* prologue: function */
 2213               	/* frame size = 0 */
 2214 083c F22E      		mov r15,r18
 2215               	.LVL255:
 2216 083e E32E      		mov r14,r19
 2217               	.LVL256:
 2218 0840 D42E      		mov r13,r20
 2219               	.LVL257:
 2220 0842 C52E      		mov r12,r21
 2221               	.LVL258:
 2222 0844 B62E      		mov r11,r22
 2223               	.LVL259:
 2224 0846 A72E      		mov r10,r23
 2225               	.LVL260:
 2226               	.LM282:
 2227 0848 0E94 0000 		call Debug_Tx_Text
 2228               	.LVL261:
 2229               	.LBB287:
 2230               	.LBB288:
 2231               	.LBB289:
 2232               	.LBB290:
 2233               	.LM283:
 2234 084c 80E2      		ldi r24,lo8(32)
 2235 084e 8093 C600 		sts 198,r24
 2236               	.L280:
 2237               	.LM284:
 2238 0852 8091 C000 		lds r24,192
 2239 0856 85FF      		sbrs r24,5
 2240 0858 00C0      		rjmp .L280
 2241               	.LBE290:
 2242               	.LBE289:
 2243               	.LBE288:
 2244               	.LBE287:
 2245               	.LM285:
 2246 085a 9801      		movw r18,r16
 2247 085c 4F2D      		mov r20,r15
 2248 085e 5E2D      		mov r21,r14
 2249 0860 6D2D      		mov r22,r13
 2250 0862 7C2D      		mov r23,r12
 2251 0864 8B2D      		mov r24,r11
 2252 0866 9A2D      		mov r25,r10
 2253 0868 0E94 0000 		call Debug_Tx_Number_Bin_CM
 2254               	/* epilogue start */
 2255               	.LM286:
 2256 086c 1F91      		pop r17
 2257 086e 0F91      		pop r16
 2258 0870 FF90      		pop r15
 2259               	.LVL262:
 2260 0872 EF90      		pop r14
 2261               	.LVL263:
 2262 0874 DF90      		pop r13
 2263               	.LVL264:
 2264 0876 CF90      		pop r12
 2265               	.LVL265:
 2266 0878 BF90      		pop r11
 2267               	.LVL266:
 2268 087a AF90      		pop r10
 2269               	.LVL267:
 2270 087c 0895      		ret
 2271               	.LFE58:
 2273               	.global	Debug_Buf_Flush
 2275               	Debug_Buf_Flush:
 2276               	.LFB59:
 2277               	.LM287:
 2278               	/* prologue: function */
 2279               	/* frame size = 0 */
 2280               	.LM288:
 2281 087e 80E0      		ldi r24,lo8(0)
 2282 0880 90E0      		ldi r25,hi8(0)
 2283               	.L284:
 2284               	.LBB291:
 2285               	.LM289:
 2286 0882 FC01      		movw r30,r24
 2287 0884 E050      		subi r30,lo8(-(Debug))
 2288 0886 F040      		sbci r31,hi8(-(Debug))
 2289 0888 1486      		std Z+12,__zero_reg__
 2290 088a 0196      		adiw r24,1
 2291               	.LM290:
 2292 088c 8034      		cpi r24,64
 2293 088e 9105      		cpc r25,__zero_reg__
 2294 0890 01F4      		brne .L284
 2295               	.LBE291:
 2296               	.LM291:
 2297 0892 1092 0000 		sts (Debug+79)+1,__zero_reg__
 2298 0896 1092 0000 		sts Debug+79,__zero_reg__
 2299               	/* epilogue start */
 2300               	.LM292:
 2301 089a 0895      		ret
 2302               	.LFE59:
 2304               	.global	Debug_Buf_Get
 2306               	Debug_Buf_Get:
 2307               	.LFB60:
 2308               	.LM293:
 2309               	.LVL268:
 2310               	/* prologue: function */
 2311               	/* frame size = 0 */
 2312               	.LM294:
 2313 089c FC01      		movw r30,r24
 2314 089e E050      		subi r30,lo8(-(Debug))
 2315 08a0 F040      		sbci r31,hi8(-(Debug))
 2316 08a2 8485      		ldd r24,Z+12
 2317               	.LVL269:
 2318               	/* epilogue start */
 2319               	.LM295:
 2320 08a4 0895      		ret
 2321               	.LFE60:
 2323               	.global	Debug_Buf_Get_Index
 2325               	Debug_Buf_Get_Index:
 2326               	.LFB61:
 2327               	.LM296:
 2328               	/* prologue: function */
 2329               	/* frame size = 0 */
 2330               	.LM297:
 2331 08a6 2091 0000 		lds r18,Debug+79
 2332 08aa 3091 0000 		lds r19,(Debug+79)+1
 2333               	.LM298:
 2334 08ae C901      		movw r24,r18
 2335               	/* epilogue start */
 2336 08b0 0895      		ret
 2337               	.LFE61:
 2339               	.global	Debug_Data_Available
 2341               	Debug_Data_Available:
 2342               	.LFB62:
 2343               	.LM299:
 2344               	/* prologue: function */
 2345               	/* frame size = 0 */
 2346               	.LM300:
 2347 08b2 8091 0000 		lds r24,Debug+88
 2348               	/* epilogue start */
 2349               	.LM301:
 2350 08b6 0895      		ret
 2351               	.LFE62:
 2353               	.global	Debug_Data_Len_Get
 2355               	Debug_Data_Len_Get:
 2356               	.LFB63:
 2357               	.LM302:
 2358               	/* prologue: function */
 2359               	/* frame size = 0 */
 2360               	.LBB292:
 2361               	.LBB293:
 2362               	.LM303:
 2363 08b8 2091 0000 		lds r18,Debug+79
 2364 08bc 3091 0000 		lds r19,(Debug+79)+1
 2365               	.LBE293:
 2366               	.LBE292:
 2367               	.LM304:
 2368 08c0 C901      		movw r24,r18
 2369               	/* epilogue start */
 2370 08c2 0895      		ret
 2371               	.LFE63:
 2373               	.global	Debug_Data_Calculated_CRC_Get
 2375               	Debug_Data_Calculated_CRC_Get:
 2376               	.LFB64:
 2377               	.LM305:
 2378               	/* prologue: function */
 2379               	/* frame size = 0 */
 2380               	.LM306:
 2381 08c4 2091 0000 		lds r18,Debug+83
 2382 08c8 3091 0000 		lds r19,(Debug+83)+1
 2383               	.LM307:
 2384 08cc C901      		movw r24,r18
 2385               	/* epilogue start */
 2386 08ce 0895      		ret
 2387               	.LFE64:
 2389               	.global	Debug_Data_Received_CRC_Get
 2391               	Debug_Data_Received_CRC_Get:
 2392               	.LFB65:
 2393               	.LM308:
 2394               	/* prologue: function */
 2395               	/* frame size = 0 */
 2396               	.LM309:
 2397 08d0 2091 0000 		lds r18,Debug+85
 2398 08d4 3091 0000 		lds r19,(Debug+85)+1
 2399               	.LM310:
 2400 08d8 C901      		movw r24,r18
 2401               	/* epilogue start */
 2402 08da 0895      		ret
 2403               	.LFE65:
 2405               	.global	Debug_Data_CRC_Status_Get
 2407               	Debug_Data_CRC_Status_Get:
 2408               	.LFB66:
 2409               	.LM311:
 2410               	/* prologue: function */
 2411               	/* frame size = 0 */
 2412               	.LM312:
 2413 08dc 8091 0000 		lds r24,Debug+87
 2414               	/* epilogue start */
 2415               	.LM313:
 2416 08e0 0895      		ret
 2417               	.LFE66:
 2419               	.global	Debug_Data_Read_Complete_Status
 2421               	Debug_Data_Read_Complete_Status:
 2422               	.LFB67:
 2423               	.LM314:
 2424               	/* prologue: function */
 2425               	/* frame size = 0 */
 2426               	.LM315:
 2427 08e2 8091 0000 		lds r24,Debug+89
 2428               	/* epilogue start */
 2429               	.LM316:
 2430 08e6 0895      		ret
 2431               	.LFE67:
 2433               	.global	Debug_Data_Clear_Available_Flag
 2435               	Debug_Data_Clear_Available_Flag:
 2436               	.LFB68:
 2437               	.LM317:
 2438               	/* prologue: function */
 2439               	/* frame size = 0 */
 2440               	.LM318:
 2441 08e8 1092 0000 		sts Debug+88,__zero_reg__
 2442               	/* epilogue start */
 2443               	.LM319:
 2444 08ec 0895      		ret
 2445               	.LFE68:
 2447               	.global	Debug_Data_Clear_Read_Complete_Flag
 2449               	Debug_Data_Clear_Read_Complete_Flag:
 2450               	.LFB69:
 2451               	.LM320:
 2452               	/* prologue: function */
 2453               	/* frame size = 0 */
 2454               	.LM321:
 2455 08ee 81E0      		ldi r24,lo8(1)
 2456 08f0 8093 0000 		sts Debug+89,r24
 2457               	/* epilogue start */
 2458               	.LM322:
 2459 08f4 0895      		ret
 2460               	.LFE69:
 2462               	.global	Debug_Data_Copy_Buf
 2464               	Debug_Data_Copy_Buf:
 2465               	.LFB70:
 2466               	.LM323:
 2467               	.LVL270:
 2468               	/* prologue: function */
 2469               	/* frame size = 0 */
 2470 08f6 AC01      		movw r20,r24
 2471               	.LM324:
 2472 08f8 20E0      		ldi r18,lo8(0)
 2473 08fa 30E0      		ldi r19,hi8(0)
 2474               	.LVL271:
 2475 08fc 00C0      		rjmp .L308
 2476               	.LVL272:
 2477               	.L309:
 2478               	.LBB294:
 2479               	.LBB295:
 2480               	.LBB296:
 2481               	.LM325:
 2482 08fe F901      		movw r30,r18
 2483 0900 E050      		subi r30,lo8(-(Debug))
 2484 0902 F040      		sbci r31,hi8(-(Debug))
 2485 0904 8485      		ldd r24,Z+12
 2486               	.LBE296:
 2487               	.LBE295:
 2488               	.LM326:
 2489 0906 FA01      		movw r30,r20
 2490 0908 E20F      		add r30,r18
 2491 090a F31F      		adc r31,r19
 2492 090c 8083      		st Z,r24
 2493               	.LM327:
 2494 090e 2F5F      		subi r18,lo8(-(1))
 2495 0910 3F4F      		sbci r19,hi8(-(1))
 2496               	.LVL273:
 2497               	.L308:
 2498               	.LBB297:
 2499               	.LBB298:
 2500               	.LBB299:
 2501               	.LBB300:
 2502               	.LM328:
 2503 0912 8091 0000 		lds r24,Debug+79
 2504 0916 9091 0000 		lds r25,(Debug+79)+1
 2505               	.LBE300:
 2506               	.LBE299:
 2507               	.LBE298:
 2508               	.LBE297:
 2509               	.LM329:
 2510 091a 2817      		cp r18,r24
 2511 091c 3907      		cpc r19,r25
 2512 091e 00F0      		brlo .L309
 2513               	/* epilogue start */
 2514               	.LBE294:
 2515               	.LM330:
 2516 0920 0895      		ret
 2517               	.LFE70:
 2519               	.global	Debug_Data_Print_Buf
 2521               	Debug_Data_Print_Buf:
 2522               	.LFB71:
 2523               	.LM331:
 2524               	/* prologue: function */
 2525               	/* frame size = 0 */
 2526               	.LM332:
 2527 0922 20E0      		ldi r18,lo8(0)
 2528 0924 30E0      		ldi r19,hi8(0)
 2529               	.LVL274:
 2530 0926 00C0      		rjmp .L312
 2531               	.L314:
 2532               	.LBB301:
 2533               	.LBB302:
 2534               	.LBB303:
 2535               	.LM333:
 2536 0928 F901      		movw r30,r18
 2537 092a E050      		subi r30,lo8(-(Debug))
 2538 092c F040      		sbci r31,hi8(-(Debug))
 2539 092e 8485      		ldd r24,Z+12
 2540               	.LBE303:
 2541               	.LBE302:
 2542               	.LBB304:
 2543               	.LBB305:
 2544               	.LM334:
 2545 0930 8093 C600 		sts 198,r24
 2546               	.L313:
 2547               	.LM335:
 2548 0934 8091 C000 		lds r24,192
 2549 0938 85FF      		sbrs r24,5
 2550 093a 00C0      		rjmp .L313
 2551               	.LBE305:
 2552               	.LBE304:
 2553               	.LM336:
 2554 093c 2F5F      		subi r18,lo8(-(1))
 2555 093e 3F4F      		sbci r19,hi8(-(1))
 2556               	.L312:
 2557               	.LBB306:
 2558               	.LBB307:
 2559               	.LBB308:
 2560               	.LBB309:
 2561               	.LM337:
 2562 0940 8091 0000 		lds r24,Debug+79
 2563 0944 9091 0000 		lds r25,(Debug+79)+1
 2564               	.LBE309:
 2565               	.LBE308:
 2566               	.LBE307:
 2567               	.LBE306:
 2568               	.LM338:
 2569 0948 2817      		cp r18,r24
 2570 094a 3907      		cpc r19,r25
 2571 094c 00F0      		brlo .L314
 2572               	.LBE301:
 2573               	.LM339:
 2574 094e 0E94 0000 		call Debug_Tx_NL
 2575               	.LVL275:
 2576               	/* epilogue start */
 2577               	.LM340:
 2578 0952 0895      		ret
 2579               	.LFE71:
 2581               	.global	Debug_Error_Code_Get
 2583               	Debug_Error_Code_Get:
 2584               	.LFB72:
 2585               	.LM341:
 2586               	/* prologue: function */
 2587               	/* frame size = 0 */
 2588               	.LM342:
 2589 0954 8091 0000 		lds r24,Debug
 2590               	/* epilogue start */
 2591               	.LM343:
 2592 0958 0895      		ret
 2593               	.LFE72:
 2595               	.global	Debug_Error_Code_Clear
 2597               	Debug_Error_Code_Clear:
 2598               	.LFB73:
 2599               	.LM344:
 2600               	/* prologue: function */
 2601               	/* frame size = 0 */
 2602               	.LM345:
 2603 095a 1092 0000 		sts Debug,__zero_reg__
 2604               	/* epilogue start */
 2605               	.LM346:
 2606 095e 0895      		ret
 2607               	.LFE73:
 2609               	.global	Debug_Sticky_Error_Code_Get
 2611               	Debug_Sticky_Error_Code_Get:
 2612               	.LFB74:
 2613               	.LM347:
 2614               	/* prologue: function */
 2615               	/* frame size = 0 */
 2616               	.LM348:
 2617 0960 8091 0000 		lds r24,Debug+1
 2618               	.LVL276:
 2619               	.LM349:
 2620 0964 1092 0000 		sts Debug+1,__zero_reg__
 2621               	.LVL277:
 2622               	/* epilogue start */
 2623               	.LM350:
 2624 0968 0895      		ret
 2625               	.LFE74:
 2627               	.global	Debug_ISR_Handler
 2629               	Debug_ISR_Handler:
 2630               	.LFB75:
 2631               	.LM351:
 2632               	/* prologue: function */
 2633               	/* frame size = 0 */
 2634               	.LM352:
 2635 096a 0E94 0000 		call Debug_Rx_Byte
 2636 096e 8093 0000 		sts Debug+11,r24
 2637               	.LM353:
 2638 0972 8091 0000 		lds r24,Debug
 2639 0976 8823      		tst r24
 2640 0978 01F4      		brne .L324
 2641               	.LM354:
 2642 097a E091 0000 		lds r30,Debug+79
 2643 097e F091 0000 		lds r31,(Debug+79)+1
 2644 0982 8091 0000 		lds r24,Debug+11
 2645 0986 E050      		subi r30,lo8(-(Debug))
 2646 0988 F040      		sbci r31,hi8(-(Debug))
 2647 098a 8487      		std Z+12,r24
 2648               	.LM355:
 2649 098c 8091 0000 		lds r24,Debug+79
 2650 0990 9091 0000 		lds r25,(Debug+79)+1
 2651 0994 0196      		adiw r24,1
 2652 0996 9093 0000 		sts (Debug+79)+1,r25
 2653 099a 8093 0000 		sts Debug+79,r24
 2654               	.LM356:
 2655 099e 2091 0000 		lds r18,Debug+79
 2656 09a2 3091 0000 		lds r19,(Debug+79)+1
 2657 09a6 8091 0000 		lds r24,Debug+77
 2658 09aa 9091 0000 		lds r25,(Debug+77)+1
 2659 09ae 2817      		cp r18,r24
 2660 09b0 3907      		cpc r19,r25
 2661 09b2 00F0      		brlo .L325
 2662               	.LM357:
 2663 09b4 1092 0000 		sts (Debug+79)+1,__zero_reg__
 2664 09b8 1092 0000 		sts Debug+79,__zero_reg__
 2665 09bc 00C0      		rjmp .L325
 2666               	.L324:
 2667               	.LM358:
 2668 09be 1092 0000 		sts Debug+11,__zero_reg__
 2669               	.LM359:
 2670 09c2 8091 0000 		lds r24,Debug+1
 2671 09c6 8823      		tst r24
 2672 09c8 01F4      		brne .L326
 2673               	.LM360:
 2674 09ca 8091 0000 		lds r24,Debug
 2675 09ce 8093 0000 		sts Debug+1,r24
 2676               	.L326:
 2677               	.LM361:
 2678 09d2 1092 0000 		sts Debug,__zero_reg__
 2679               	.L325:
 2680               	.LM362:
 2681 09d6 8091 0000 		lds r24,Debug+81
 2682 09da 8823      		tst r24
 2683 09dc 01F4      		brne .L328
 2684               	.LM363:
 2685 09de 81E0      		ldi r24,lo8(1)
 2686 09e0 8093 0000 		sts Debug+81,r24
 2687               	.L328:
 2688 09e4 0895      		ret
 2689               	.LFE75:
 2691               	.global	__vector_18
 2693               	__vector_18:
 2694               	.LFB17:
 2695               	.LM364:
 2696 09e6 1F92      		push __zero_reg__
 2697 09e8 0F92      		push r0
 2698 09ea 0FB6      		in r0,__SREG__
 2699 09ec 0F92      		push r0
 2700 09ee 1124      		clr __zero_reg__
 2701 09f0 2F93      		push r18
 2702 09f2 3F93      		push r19
 2703 09f4 4F93      		push r20
 2704 09f6 5F93      		push r21
 2705 09f8 6F93      		push r22
 2706 09fa 7F93      		push r23
 2707 09fc 8F93      		push r24
 2708 09fe 9F93      		push r25
 2709 0a00 AF93      		push r26
 2710 0a02 BF93      		push r27
 2711 0a04 EF93      		push r30
 2712 0a06 FF93      		push r31
 2713               	/* prologue: Signal */
 2714               	/* frame size = 0 */
 2715               	.LM365:
 2716 0a08 0E94 0000 		call Debug_ISR_Handler
 2717               	/* epilogue start */
 2718               	.LM366:
 2719 0a0c FF91      		pop r31
 2720 0a0e EF91      		pop r30
 2721 0a10 BF91      		pop r27
 2722 0a12 AF91      		pop r26
 2723 0a14 9F91      		pop r25
 2724 0a16 8F91      		pop r24
 2725 0a18 7F91      		pop r23
 2726 0a1a 6F91      		pop r22
 2727 0a1c 5F91      		pop r21
 2728 0a1e 4F91      		pop r20
 2729 0a20 3F91      		pop r19
 2730 0a22 2F91      		pop r18
 2731 0a24 0F90      		pop r0
 2732 0a26 0FBE      		out __SREG__,r0
 2733 0a28 0F90      		pop r0
 2734 0a2a 1F90      		pop __zero_reg__
 2735 0a2c 1895      		reti
 2736               	.LFE17:
 2738               	.global	Debug_CRC_Calculate_Byte
 2740               	Debug_CRC_Calculate_Byte:
 2741               	.LFB77:
 2742               	.LM367:
 2743               	.LVL278:
 2744               	/* prologue: function */
 2745               	/* frame size = 0 */
 2746               	.LM368:
 2747 0a2e 362F      		mov r19,r22
 2748               	.LVL279:
 2749 0a30 20E0      		ldi r18,lo8(0)
 2750               	.LVL280:
 2751 0a32 2827      		eor r18,r24
 2752 0a34 3927      		eor r19,r25
 2753               	.LVL281:
 2754 0a36 40E0      		ldi r20,lo8(0)
 2755               	.LVL282:
 2756               	.LBB310:
 2757               	.LM369:
 2758 0a38 61E2      		ldi r22,lo8(4129)
 2759 0a3a 70E1      		ldi r23,hi8(4129)
 2760               	.LVL283:
 2761               	.L334:
 2762 0a3c C901      		movw r24,r18
 2763 0a3e 880F      		lsl r24
 2764 0a40 991F      		rol r25
 2765               	.LVL284:
 2766               	.LM370:
 2767 0a42 37FF      		sbrs r19,7
 2768 0a44 00C0      		rjmp .L332
 2769               	.LVL285:
 2770               	.LM371:
 2771 0a46 9C01      		movw r18,r24
 2772 0a48 2627      		eor r18,r22
 2773 0a4a 3727      		eor r19,r23
 2774 0a4c 00C0      		rjmp .L333
 2775               	.LVL286:
 2776               	.L332:
 2777               	.LM372:
 2778 0a4e 9C01      		movw r18,r24
 2779               	.L333:
 2780               	.LM373:
 2781 0a50 4F5F      		subi r20,lo8(-(1))
 2782 0a52 4830      		cpi r20,lo8(8)
 2783 0a54 01F4      		brne .L334
 2784               	.LBE310:
 2785               	.LM374:
 2786 0a56 C901      		movw r24,r18
 2787               	.LVL287:
 2788               	/* epilogue start */
 2789 0a58 0895      		ret
 2790               	.LFE77:
 2792               	.global	Debug_CRC_Calculate_Block
 2794               	Debug_CRC_Calculate_Block:
 2795               	.LFB78:
 2796               	.LM375:
 2797               	.LVL288:
 2798 0a5a 0F93      		push r16
 2799 0a5c 1F93      		push r17
 2800 0a5e CF93      		push r28
 2801 0a60 DF93      		push r29
 2802               	/* prologue: function */
 2803               	/* frame size = 0 */
 2804 0a62 062F      		mov r16,r22
 2805               	.LM376:
 2806 0a64 EC01      		movw r28,r24
 2807               	.LVL289:
 2808 0a66 20E0      		ldi r18,lo8(0)
 2809 0a68 30E0      		ldi r19,hi8(0)
 2810               	.LVL290:
 2811 0a6a 10E0      		ldi r17,lo8(0)
 2812               	.LVL291:
 2813 0a6c 00C0      		rjmp .L338
 2814               	.LVL292:
 2815               	.L339:
 2816               	.LBB311:
 2817               	.LM377:
 2818 0a6e 6991      		ld r22,Y+
 2819 0a70 C901      		movw r24,r18
 2820 0a72 0E94 0000 		call Debug_CRC_Calculate_Byte
 2821               	.LVL293:
 2822 0a76 9C01      		movw r18,r24
 2823               	.LVL294:
 2824               	.LM378:
 2825 0a78 1F5F      		subi r17,lo8(-(1))
 2826               	.LVL295:
 2827               	.L338:
 2828 0a7a 1017      		cp r17,r16
 2829 0a7c 00F0      		brlo .L339
 2830               	.LBE311:
 2831               	.LM379:
 2832 0a7e C901      		movw r24,r18
 2833               	.LVL296:
 2834               	/* epilogue start */
 2835 0a80 DF91      		pop r29
 2836 0a82 CF91      		pop r28
 2837 0a84 1F91      		pop r17
 2838               	.LVL297:
 2839 0a86 0F91      		pop r16
 2840               	.LVL298:
 2841 0a88 0895      		ret
 2842               	.LFE78:
 2844               	.global	Debug_RX_Packet_CRC_Check
 2846               	Debug_RX_Packet_CRC_Check:
 2847               	.LFB79:
 2848               	.LM380:
 2849               	/* prologue: function */
 2850               	/* frame size = 0 */
 2851               	.LM381:
 2852 0a8a 1092 0000 		sts Debug+87,__zero_reg__
 2853               	.LBB312:
 2854               	.LBB313:
 2855               	.LBB314:
 2856               	.LBB315:
 2857               	.LM382:
 2858 0a8e 8091 0000 		lds r24,Debug+79
 2859 0a92 9091 0000 		lds r25,(Debug+79)+1
 2860               	.LBE315:
 2861               	.LBE314:
 2862               	.LBE313:
 2863               	.LBE312:
 2864               	.LM383:
 2865 0a96 0397      		sbiw r24,3
 2866 0a98 00F0      		brlo .L343
 2867               	.LBB316:
 2868               	.LBB317:
 2869               	.LBB318:
 2870               	.LBB319:
 2871               	.LM384:
 2872 0a9a 6091 0000 		lds r22,Debug+79
 2873 0a9e 7091 0000 		lds r23,(Debug+79)+1
 2874               	.LBE319:
 2875               	.LBE318:
 2876               	.LBE317:
 2877               	.LBE316:
 2878               	.LM385:
 2879 0aa2 6250      		subi r22,lo8(-(-2))
 2880 0aa4 80E0      		ldi r24,lo8(Debug+12)
 2881 0aa6 90E0      		ldi r25,hi8(Debug+12)
 2882 0aa8 0E94 0000 		call Debug_CRC_Calculate_Block
 2883               	.LBB320:
 2884               	.LBB321:
 2885               	.LBB322:
 2886               	.LBB323:
 2887               	.LM386:
 2888 0aac E091 0000 		lds r30,Debug+79
 2889 0ab0 F091 0000 		lds r31,(Debug+79)+1
 2890               	.LBE323:
 2891               	.LBE322:
 2892               	.LBE321:
 2893               	.LBE320:
 2894               	.LBB324:
 2895               	.LBB325:
 2896               	.LM387:
 2897 0ab4 E050      		subi r30,lo8(-(Debug-2))
 2898 0ab6 F040      		sbci r31,hi8(-(Debug-2))
 2899 0ab8 2485      		ldd r18,Z+12
 2900               	.LBE325:
 2901               	.LBE324:
 2902               	.LM388:
 2903 0aba 522F      		mov r21,r18
 2904               	.LVL299:
 2905 0abc 40E0      		ldi r20,lo8(0)
 2906               	.LVL300:
 2907               	.LBB326:
 2908               	.LBB327:
 2909               	.LBB328:
 2910               	.LBB329:
 2911               	.LM389:
 2912 0abe E091 0000 		lds r30,Debug+79
 2913 0ac2 F091 0000 		lds r31,(Debug+79)+1
 2914               	.LBE329:
 2915               	.LBE328:
 2916               	.LBE327:
 2917               	.LBE326:
 2918               	.LBB330:
 2919               	.LBB331:
 2920               	.LM390:
 2921 0ac6 E050      		subi r30,lo8(-(Debug-1))
 2922 0ac8 F040      		sbci r31,hi8(-(Debug-1))
 2923 0aca 2485      		ldd r18,Z+12
 2924               	.LBE331:
 2925               	.LBE330:
 2926               	.LM391:
 2927 0acc 30E0      		ldi r19,lo8(0)
 2928 0ace 422B      		or r20,r18
 2929 0ad0 532B      		or r21,r19
 2930               	.LVL301:
 2931               	.LM392:
 2932 0ad2 9093 0000 		sts (Debug+83)+1,r25
 2933 0ad6 8093 0000 		sts Debug+83,r24
 2934               	.LVL302:
 2935               	.LM393:
 2936 0ada 5093 0000 		sts (Debug+85)+1,r21
 2937 0ade 4093 0000 		sts Debug+85,r20
 2938               	.LM394:
 2939 0ae2 2091 0000 		lds r18,Debug+83
 2940 0ae6 3091 0000 		lds r19,(Debug+83)+1
 2941 0aea 8091 0000 		lds r24,Debug+85
 2942 0aee 9091 0000 		lds r25,(Debug+85)+1
 2943               	.LVL303:
 2944 0af2 2817      		cp r18,r24
 2945 0af4 3907      		cpc r19,r25
 2946 0af6 01F4      		brne .L343
 2947               	.LM395:
 2948 0af8 81E0      		ldi r24,lo8(1)
 2949 0afa 8093 0000 		sts Debug+87,r24
 2950               	.L343:
 2951 0afe 0895      		ret
 2952               	.LFE79:
 2954               	.global	Debug_RX_Packet_Disassemble
 2956               	Debug_RX_Packet_Disassemble:
 2957               	.LFB80:
 2958               	.LM396:
 2959               	/* prologue: function */
 2960               	/* frame size = 0 */
 2961               	/* epilogue start */
 2962               	.LM397:
 2963 0b00 0895      		ret
 2964               	.LFE80:
 2966               	.global	Debug_RX_Packet_Read_Complete
 2968               	Debug_RX_Packet_Read_Complete:
 2969               	.LFB81:
 2970               	.LM398:
 2971               	/* prologue: function */
 2972               	/* frame size = 0 */
 2973               	.LM399:
 2974 0b02 80E0      		ldi r24,lo8(0)
 2975 0b04 90E0      		ldi r25,hi8(0)
 2976               	.L347:
 2977               	.LBB332:
 2978               	.LBB333:
 2979               	.LBB334:
 2980               	.LM400:
 2981 0b06 FC01      		movw r30,r24
 2982 0b08 E050      		subi r30,lo8(-(Debug))
 2983 0b0a F040      		sbci r31,hi8(-(Debug))
 2984 0b0c 1486      		std Z+12,__zero_reg__
 2985 0b0e 0196      		adiw r24,1
 2986               	.LM401:
 2987 0b10 8034      		cpi r24,64
 2988 0b12 9105      		cpc r25,__zero_reg__
 2989 0b14 01F4      		brne .L347
 2990               	.LBE334:
 2991               	.LM402:
 2992 0b16 1092 0000 		sts (Debug+79)+1,__zero_reg__
 2993 0b1a 1092 0000 		sts Debug+79,__zero_reg__
 2994               	.LBE333:
 2995               	.LBE332:
 2996               	.LBB335:
 2997               	.LBB336:
 2998               	.LM403:
 2999 0b1e 1092 0000 		sts Debug+88,__zero_reg__
 3000               	.LBE336:
 3001               	.LBE335:
 3002               	.LBB337:
 3003               	.LBB338:
 3004               	.LM404:
 3005 0b22 81E0      		ldi r24,lo8(1)
 3006 0b24 8093 0000 		sts Debug+89,r24
 3007               	.LBE338:
 3008               	.LBE337:
 3009               	.LBB339:
 3010               	.LBB340:
 3011               	.LM405:
 3012 0b28 1092 0000 		sts Debug,__zero_reg__
 3013               	/* epilogue start */
 3014               	.LBE340:
 3015               	.LBE339:
 3016               	.LM406:
 3017 0b2c 0895      		ret
 3018               	.LFE81:
 3020               	.global	Debug_Timer_ISR_Handler
 3022               	Debug_Timer_ISR_Handler:
 3023               	.LFB76:
 3024               	.LM407:
 3025               	/* prologue: function */
 3026               	/* frame size = 0 */
 3027               	.LM408:
 3028 0b2e 8091 0000 		lds r24,Debug+81
 3029 0b32 8130      		cpi r24,lo8(1)
 3030 0b34 01F4      		brne .L351
 3031               	.LM409:
 3032 0b36 1092 0000 		sts Debug+81,__zero_reg__
 3033               	.L351:
 3034               	.LBB341:
 3035               	.LBB342:
 3036               	.LM410:
 3037 0b3a 8091 0000 		lds r24,Debug+79
 3038 0b3e 9091 0000 		lds r25,(Debug+79)+1
 3039               	.LBE342:
 3040               	.LBE341:
 3041               	.LM411:
 3042 0b42 892B      		or r24,r25
 3043 0b44 01F0      		breq .L356
 3044               	.LM412:
 3045 0b46 8091 0000 		lds r24,Debug+89
 3046 0b4a 8823      		tst r24
 3047 0b4c 01F4      		brne .L353
 3048               	.LM413:
 3049 0b4e 80E1      		ldi r24,lo8(16)
 3050 0b50 8093 0000 		sts Debug,r24
 3051               	.LM414:
 3052 0b54 8091 0000 		lds r24,Debug+1
 3053 0b58 8823      		tst r24
 3054 0b5a 01F4      		brne .L354
 3055               	.LM415:
 3056 0b5c 8091 0000 		lds r24,Debug
 3057 0b60 8093 0000 		sts Debug+1,r24
 3058               	.L354:
 3059               	.LM416:
 3060 0b64 1092 0000 		sts Debug,__zero_reg__
 3061               	.L353:
 3062               	.LM417:
 3063 0b68 0E94 0000 		call Debug_RX_Packet_CRC_Check
 3064               	.LM418:
 3065 0b6c 8091 0000 		lds r24,Debug+87
 3066 0b70 8130      		cpi r24,lo8(1)
 3067 0b72 01F4      		brne .L355
 3068               	.LM419:
 3069 0b74 8093 0000 		sts Debug+88,r24
 3070               	.LM420:
 3071 0b78 1092 0000 		sts Debug+89,__zero_reg__
 3072 0b7c 0895      		ret
 3073               	.L355:
 3074               	.LM421:
 3075 0b7e 0E94 0000 		call Debug_RX_Packet_Read_Complete
 3076               	.L356:
 3077 0b82 0895      		ret
 3078               	.LFE76:
 3080               	.global	Debug_Init
 3082               	Debug_Init:
 3083               	.LFB82:
 3084               	.LM422:
 3085               	.LVL304:
 3086 0b84 EF92      		push r14
 3087 0b86 FF92      		push r15
 3088 0b88 0F93      		push r16
 3089 0b8a 1F93      		push r17
 3090               	/* prologue: function */
 3091               	/* frame size = 0 */
 3092 0b8c 7B01      		movw r14,r22
 3093 0b8e 8C01      		movw r16,r24
 3094               	.LM423:
 3095 0b90 0E94 0000 		call Debug_Struct_Init
 3096               	.LVL305:
 3097               	.LBB343:
 3098               	.LBB344:
 3099               	.LM424:
 3100 0b94 1092 0000 		sts (Debug+83)+1,__zero_reg__
 3101 0b98 1092 0000 		sts Debug+83,__zero_reg__
 3102               	.LM425:
 3103 0b9c 1092 0000 		sts (Debug+85)+1,__zero_reg__
 3104 0ba0 1092 0000 		sts Debug+85,__zero_reg__
 3105               	.LM426:
 3106 0ba4 1092 0000 		sts Debug+87,__zero_reg__
 3107               	.LM427:
 3108 0ba8 1092 0000 		sts Debug+88,__zero_reg__
 3109               	.LM428:
 3110 0bac 81E0      		ldi r24,lo8(1)
 3111 0bae 8093 0000 		sts Debug+89,r24
 3112               	.LBE344:
 3113               	.LBE343:
 3114               	.LBB345:
 3115               	.LBB346:
 3116               	.LM429:
 3117 0bb2 1092 0000 		sts Debug+81,__zero_reg__
 3118               	.LM430:
 3119 0bb6 1092 0000 		sts Debug+82,__zero_reg__
 3120               	.LBE346:
 3121               	.LBE345:
 3122               	.LBB347:
 3123               	.LBB348:
 3124               	.LM431:
 3125 0bba 8091 C000 		lds r24,192
 3126 0bbe 8D7F      		andi r24,lo8(-3)
 3127 0bc0 8093 C000 		sts 192,r24
 3128               	.LBE348:
 3129               	.LBE347:
 3130               	.LM432:
 3131 0bc4 C801      		movw r24,r16
 3132 0bc6 B701      		movw r22,r14
 3133 0bc8 0E94 0000 		call Debug_Config_BAUD_Rate
 3134               	.LBB349:
 3135               	.LBB350:
 3136               	.LM433:
 3137 0bcc 8091 C100 		lds r24,193
 3138 0bd0 8860      		ori r24,lo8(8)
 3139 0bd2 8093 C100 		sts 193,r24
 3140               	.LM434:
 3141 0bd6 8091 C200 		lds r24,194
 3142 0bda 8660      		ori r24,lo8(6)
 3143 0bdc 8093 C200 		sts 194,r24
 3144 0be0 80E0      		ldi r24,lo8(0)
 3145 0be2 90E0      		ldi r25,hi8(0)
 3146               	.L358:
 3147               	.LBE350:
 3148               	.LBE349:
 3149               	.LBB351:
 3150               	.LBB352:
 3151               	.LBB353:
 3152               	.LM435:
 3153 0be4 FC01      		movw r30,r24
 3154 0be6 E050      		subi r30,lo8(-(Debug))
 3155 0be8 F040      		sbci r31,hi8(-(Debug))
 3156 0bea 1486      		std Z+12,__zero_reg__
 3157 0bec 0196      		adiw r24,1
 3158               	.LM436:
 3159 0bee 8034      		cpi r24,64
 3160 0bf0 9105      		cpc r25,__zero_reg__
 3161 0bf2 01F4      		brne .L358
 3162               	.LBE353:
 3163               	.LM437:
 3164 0bf4 1092 0000 		sts (Debug+79)+1,__zero_reg__
 3165 0bf8 1092 0000 		sts Debug+79,__zero_reg__
 3166               	/* epilogue start */
 3167               	.LBE352:
 3168               	.LBE351:
 3169               	.LM438:
 3170 0bfc 1F91      		pop r17
 3171 0bfe 0F91      		pop r16
 3172 0c00 FF90      		pop r15
 3173 0c02 EF90      		pop r14
 3174               	.LVL306:
 3175 0c04 0895      		ret
 3176               	.LFE82:
 3178               		.lcomm Debug,91
 3811               	.Letext0:
DEFINED SYMBOLS
                            *ABS*:00000000 debug.c
C:\Users\WALTON\AppData\Local\Temp/cc3Mb8EH.s:2      *ABS*:0000003f __SREG__
C:\Users\WALTON\AppData\Local\Temp/cc3Mb8EH.s:3      *ABS*:0000003e __SP_H__
C:\Users\WALTON\AppData\Local\Temp/cc3Mb8EH.s:4      *ABS*:0000003d __SP_L__
C:\Users\WALTON\AppData\Local\Temp/cc3Mb8EH.s:5      *ABS*:00000034 __CCP__
C:\Users\WALTON\AppData\Local\Temp/cc3Mb8EH.s:6      *ABS*:00000000 __tmp_reg__
C:\Users\WALTON\AppData\Local\Temp/cc3Mb8EH.s:7      *ABS*:00000001 __zero_reg__
C:\Users\WALTON\AppData\Local\Temp/cc3Mb8EH.s:18     .text:00000000 Debug_Struct_Init
                             .bss:00000000 Debug
C:\Users\WALTON\AppData\Local\Temp/cc3Mb8EH.s:82     .text:0000004e Debug_RX_Packet_Struct_Init
C:\Users\WALTON\AppData\Local\Temp/cc3Mb8EH.s:107    .text:0000006e Debug_Config_GPIO
C:\Users\WALTON\AppData\Local\Temp/cc3Mb8EH.s:119    .text:00000070 Debug_Config_Clock
C:\Users\WALTON\AppData\Local\Temp/cc3Mb8EH.s:137    .text:0000007c Debug_Config_BAUD_Rate
C:\Users\WALTON\AppData\Local\Temp/cc3Mb8EH.s:173    .text:000000a6 Debug_Config_Tx
C:\Users\WALTON\AppData\Local\Temp/cc3Mb8EH.s:197    .text:000000bc Debug_Config_Rx
C:\Users\WALTON\AppData\Local\Temp/cc3Mb8EH.s:221    .text:000000d2 Debug_Config_Rx_Interrupt
C:\Users\WALTON\AppData\Local\Temp/cc3Mb8EH.s:245    .text:000000e0 Debug_Clear_Interrupt_Flag
C:\Users\WALTON\AppData\Local\Temp/cc3Mb8EH.s:257    .text:000000e2 Debug_Tx_Byte
C:\Users\WALTON\AppData\Local\Temp/cc3Mb8EH.s:278    .text:000000f0 Debug_Rx_Byte
C:\Users\WALTON\AppData\Local\Temp/cc3Mb8EH.s:305    .text:00000108 Debug_Timer_Struct_Init
C:\Users\WALTON\AppData\Local\Temp/cc3Mb8EH.s:321    .text:00000112 Debug_Timer_Init
C:\Users\WALTON\AppData\Local\Temp/cc3Mb8EH.s:333    .text:00000114 Debug_Timer_Enable
C:\Users\WALTON\AppData\Local\Temp/cc3Mb8EH.s:345    .text:00000116 Debug_Timer_Disable
C:\Users\WALTON\AppData\Local\Temp/cc3Mb8EH.s:357    .text:00000118 Debug_Timer_Get_Status
C:\Users\WALTON\AppData\Local\Temp/cc3Mb8EH.s:371    .text:0000011e Debug_Timer_Get_Val
C:\Users\WALTON\AppData\Local\Temp/cc3Mb8EH.s:385    .text:00000124 Debug_Timer_Value_Reset
C:\Users\WALTON\AppData\Local\Temp/cc3Mb8EH.s:397    .text:00000126 Debug_Timer_Clear_Interrupt_Flag
C:\Users\WALTON\AppData\Local\Temp/cc3Mb8EH.s:409    .text:00000128 Debug_Tx_Buf
C:\Users\WALTON\AppData\Local\Temp/cc3Mb8EH.s:463    .text:00000154 Debug_Tx_NL
C:\Users\WALTON\AppData\Local\Temp/cc3Mb8EH.s:499    .text:00000172 Debug_Tx_SP
C:\Users\WALTON\AppData\Local\Temp/cc3Mb8EH.s:523    .text:00000182 Debug_Tx_CM
C:\Users\WALTON\AppData\Local\Temp/cc3Mb8EH.s:547    .text:00000192 Debug_Tx_Text
C:\Users\WALTON\AppData\Local\Temp/cc3Mb8EH.s:589    .text:000001b4 Debug_Tx_Text_NL
C:\Users\WALTON\AppData\Local\Temp/cc3Mb8EH.s:607    .text:000001be Debug_Tx_Text_SP
C:\Users\WALTON\AppData\Local\Temp/cc3Mb8EH.s:639    .text:000001d2 Debug_Tx_Text_CM
C:\Users\WALTON\AppData\Local\Temp/cc3Mb8EH.s:671    .text:000001e6 Debug_Determine_Digit_Numbers
C:\Users\WALTON\AppData\Local\Temp/cc3Mb8EH.s:761    .text:00000264 Debug_Tx_Number_Digits
C:\Users\WALTON\AppData\Local\Temp/cc3Mb8EH.s:813    .text:0000028e Debug_Tx_Number
C:\Users\WALTON\AppData\Local\Temp/cc3Mb8EH.s:860    .text:000002c0 Debug_Tx_Number_Hex_Raw
C:\Users\WALTON\AppData\Local\Temp/cc3Mb8EH.s:1136   .text:00000418 Debug_Tx_Number_Hex
C:\Users\WALTON\AppData\Local\Temp/cc3Mb8EH.s:1180   .text:0000043e Debug_Tx_Number_Bin_Raw
C:\Users\WALTON\AppData\Local\Temp/cc3Mb8EH.s:1388   .text:00000546 Debug_Tx_Number_Bin
C:\Users\WALTON\AppData\Local\Temp/cc3Mb8EH.s:1432   .text:0000056c Debug_Tx_Number_NL
C:\Users\WALTON\AppData\Local\Temp/cc3Mb8EH.s:1450   .text:00000576 Debug_Tx_Number_SP
C:\Users\WALTON\AppData\Local\Temp/cc3Mb8EH.s:1482   .text:0000058a Debug_Tx_Number_CM
C:\Users\WALTON\AppData\Local\Temp/cc3Mb8EH.s:1514   .text:0000059e Debug_Tx_Number_Hex_NL
C:\Users\WALTON\AppData\Local\Temp/cc3Mb8EH.s:1532   .text:000005a8 Debug_Tx_Number_Hex_SP
C:\Users\WALTON\AppData\Local\Temp/cc3Mb8EH.s:1564   .text:000005bc Debug_Tx_Number_Hex_CM
C:\Users\WALTON\AppData\Local\Temp/cc3Mb8EH.s:1596   .text:000005d0 Debug_Tx_Number_Bin_NL
C:\Users\WALTON\AppData\Local\Temp/cc3Mb8EH.s:1614   .text:000005da Debug_Tx_Number_Bin_SP
C:\Users\WALTON\AppData\Local\Temp/cc3Mb8EH.s:1646   .text:000005ee Debug_Tx_Number_Bin_CM
C:\Users\WALTON\AppData\Local\Temp/cc3Mb8EH.s:1678   .text:00000602 Debug_Tx_Parameter_NL
C:\Users\WALTON\AppData\Local\Temp/cc3Mb8EH.s:1725   .text:00000632 Debug_Tx_Parameter_SP
C:\Users\WALTON\AppData\Local\Temp/cc3Mb8EH.s:1772   .text:00000662 Debug_Tx_Parameter_CM
C:\Users\WALTON\AppData\Local\Temp/cc3Mb8EH.s:1819   .text:00000692 Debug_Tx_Parameter_Hex_NL
C:\Users\WALTON\AppData\Local\Temp/cc3Mb8EH.s:1895   .text:000006e4 Debug_Tx_Parameter_Hex_SP
C:\Users\WALTON\AppData\Local\Temp/cc3Mb8EH.s:1971   .text:00000736 Debug_Tx_Parameter_Hex_CM
C:\Users\WALTON\AppData\Local\Temp/cc3Mb8EH.s:2047   .text:00000788 Debug_Tx_Parameter_Bin_NL
C:\Users\WALTON\AppData\Local\Temp/cc3Mb8EH.s:2123   .text:000007da Debug_Tx_Parameter_Bin_SP
C:\Users\WALTON\AppData\Local\Temp/cc3Mb8EH.s:2199   .text:0000082c Debug_Tx_Parameter_Bin_CM
C:\Users\WALTON\AppData\Local\Temp/cc3Mb8EH.s:2275   .text:0000087e Debug_Buf_Flush
C:\Users\WALTON\AppData\Local\Temp/cc3Mb8EH.s:2306   .text:0000089c Debug_Buf_Get
C:\Users\WALTON\AppData\Local\Temp/cc3Mb8EH.s:2325   .text:000008a6 Debug_Buf_Get_Index
C:\Users\WALTON\AppData\Local\Temp/cc3Mb8EH.s:2341   .text:000008b2 Debug_Data_Available
C:\Users\WALTON\AppData\Local\Temp/cc3Mb8EH.s:2355   .text:000008b8 Debug_Data_Len_Get
C:\Users\WALTON\AppData\Local\Temp/cc3Mb8EH.s:2375   .text:000008c4 Debug_Data_Calculated_CRC_Get
C:\Users\WALTON\AppData\Local\Temp/cc3Mb8EH.s:2391   .text:000008d0 Debug_Data_Received_CRC_Get
C:\Users\WALTON\AppData\Local\Temp/cc3Mb8EH.s:2407   .text:000008dc Debug_Data_CRC_Status_Get
C:\Users\WALTON\AppData\Local\Temp/cc3Mb8EH.s:2421   .text:000008e2 Debug_Data_Read_Complete_Status
C:\Users\WALTON\AppData\Local\Temp/cc3Mb8EH.s:2435   .text:000008e8 Debug_Data_Clear_Available_Flag
C:\Users\WALTON\AppData\Local\Temp/cc3Mb8EH.s:2449   .text:000008ee Debug_Data_Clear_Read_Complete_Flag
C:\Users\WALTON\AppData\Local\Temp/cc3Mb8EH.s:2464   .text:000008f6 Debug_Data_Copy_Buf
C:\Users\WALTON\AppData\Local\Temp/cc3Mb8EH.s:2521   .text:00000922 Debug_Data_Print_Buf
C:\Users\WALTON\AppData\Local\Temp/cc3Mb8EH.s:2583   .text:00000954 Debug_Error_Code_Get
C:\Users\WALTON\AppData\Local\Temp/cc3Mb8EH.s:2597   .text:0000095a Debug_Error_Code_Clear
C:\Users\WALTON\AppData\Local\Temp/cc3Mb8EH.s:2611   .text:00000960 Debug_Sticky_Error_Code_Get
C:\Users\WALTON\AppData\Local\Temp/cc3Mb8EH.s:2629   .text:0000096a Debug_ISR_Handler
C:\Users\WALTON\AppData\Local\Temp/cc3Mb8EH.s:2693   .text:000009e6 __vector_18
C:\Users\WALTON\AppData\Local\Temp/cc3Mb8EH.s:2740   .text:00000a2e Debug_CRC_Calculate_Byte
C:\Users\WALTON\AppData\Local\Temp/cc3Mb8EH.s:2794   .text:00000a5a Debug_CRC_Calculate_Block
C:\Users\WALTON\AppData\Local\Temp/cc3Mb8EH.s:2846   .text:00000a8a Debug_RX_Packet_CRC_Check
C:\Users\WALTON\AppData\Local\Temp/cc3Mb8EH.s:2956   .text:00000b00 Debug_RX_Packet_Disassemble
C:\Users\WALTON\AppData\Local\Temp/cc3Mb8EH.s:2968   .text:00000b02 Debug_RX_Packet_Read_Complete
C:\Users\WALTON\AppData\Local\Temp/cc3Mb8EH.s:3022   .text:00000b2e Debug_Timer_ISR_Handler
C:\Users\WALTON\AppData\Local\Temp/cc3Mb8EH.s:3082   .text:00000b84 Debug_Init

UNDEFINED SYMBOLS
__udivmodsi4
__lshrdi3
__do_clear_bss
