
main.elf:     file format elf32-avr

Sections:
Idx Name          Size      VMA       LMA       File off  Algn
  0 .text         000004ea  00000000  00000000  00000074  2**1
                  CONTENTS, ALLOC, LOAD, READONLY, CODE
  1 .bss          000001a0  00800100  00800100  0000055e  2**0
                  ALLOC
  2 .stab         00000ef4  00000000  00000000  00000560  2**2
                  CONTENTS, READONLY, DEBUGGING
  3 .stabstr      00000037  00000000  00000000  00001454  2**0
                  CONTENTS, READONLY, DEBUGGING
  4 .debug_aranges 00000020  00000000  00000000  0000148b  2**0
                  CONTENTS, READONLY, DEBUGGING
  5 .debug_pubnames 0000002c  00000000  00000000  000014ab  2**0
                  CONTENTS, READONLY, DEBUGGING
  6 .debug_info   000000a5  00000000  00000000  000014d7  2**0
                  CONTENTS, READONLY, DEBUGGING
  7 .debug_abbrev 00000070  00000000  00000000  0000157c  2**0
                  CONTENTS, READONLY, DEBUGGING
  8 .debug_line   000000e1  00000000  00000000  000015ec  2**0
                  CONTENTS, READONLY, DEBUGGING
  9 .debug_frame  00000020  00000000  00000000  000016d0  2**2
                  CONTENTS, READONLY, DEBUGGING
 10 .debug_str    000000a8  00000000  00000000  000016f0  2**0
                  CONTENTS, READONLY, DEBUGGING

Disassembly of section .text:

00000000 <__vectors>:
   0:	0c 94 45 00 	jmp	0x8a	; 0x8a <__ctors_end>
   4:	0c 94 57 00 	jmp	0xae	; 0xae <__bad_interrupt>
   8:	0c 94 57 00 	jmp	0xae	; 0xae <__bad_interrupt>
   c:	0c 94 57 00 	jmp	0xae	; 0xae <__bad_interrupt>
  10:	0c 94 57 00 	jmp	0xae	; 0xae <__bad_interrupt>
  14:	0c 94 57 00 	jmp	0xae	; 0xae <__bad_interrupt>
  18:	0c 94 57 00 	jmp	0xae	; 0xae <__bad_interrupt>
  1c:	0c 94 57 00 	jmp	0xae	; 0xae <__bad_interrupt>
  20:	0c 94 57 00 	jmp	0xae	; 0xae <__bad_interrupt>
  24:	0c 94 57 00 	jmp	0xae	; 0xae <__bad_interrupt>
  28:	0c 94 57 00 	jmp	0xae	; 0xae <__bad_interrupt>
  2c:	0c 94 57 00 	jmp	0xae	; 0xae <__bad_interrupt>
  30:	0c 94 57 00 	jmp	0xae	; 0xae <__bad_interrupt>
  34:	0c 94 57 00 	jmp	0xae	; 0xae <__bad_interrupt>
  38:	0c 94 57 00 	jmp	0xae	; 0xae <__bad_interrupt>
  3c:	0c 94 57 00 	jmp	0xae	; 0xae <__bad_interrupt>
  40:	0c 94 fc 00 	jmp	0x1f8	; 0x1f8 <__vector_16>
  44:	0c 94 57 00 	jmp	0xae	; 0xae <__bad_interrupt>
  48:	0c 94 57 00 	jmp	0xae	; 0xae <__bad_interrupt>
  4c:	0c 94 57 00 	jmp	0xae	; 0xae <__bad_interrupt>
  50:	0c 94 57 00 	jmp	0xae	; 0xae <__bad_interrupt>
  54:	0c 94 57 00 	jmp	0xae	; 0xae <__bad_interrupt>
  58:	0c 94 57 00 	jmp	0xae	; 0xae <__bad_interrupt>
  5c:	0c 94 57 00 	jmp	0xae	; 0xae <__bad_interrupt>
  60:	0c 94 57 00 	jmp	0xae	; 0xae <__bad_interrupt>
  64:	0c 94 57 00 	jmp	0xae	; 0xae <__bad_interrupt>
  68:	00 00       	nop
  6a:	00 00       	nop
  6c:	00 00       	nop
  6e:	00 00       	nop
  70:	00 00       	nop
  72:	00 00       	nop
  74:	00 00       	nop
  76:	00 00       	nop
  78:	00 00       	nop
  7a:	00 00       	nop
  7c:	00 00       	nop
  7e:	00 00       	nop
  80:	00 00       	nop
  82:	00 00       	nop
  84:	00 00       	nop
  86:	00 00       	nop
  88:	b7 c0       	rjmp	.+366    	; 0x1f8 <__vector_16>

0000008a <__ctors_end>:
  8a:	11 24       	eor	r1, r1
  8c:	1f be       	out	0x3f, r1	; 63
  8e:	cf ef       	ldi	r28, 0xFF	; 255
  90:	d8 e0       	ldi	r29, 0x08	; 8
  92:	de bf       	out	0x3e, r29	; 62
  94:	cd bf       	out	0x3d, r28	; 61

00000096 <__do_clear_bss>:
  96:	12 e0       	ldi	r17, 0x02	; 2
  98:	a0 e0       	ldi	r26, 0x00	; 0
  9a:	b1 e0       	ldi	r27, 0x01	; 1
  9c:	01 c0       	rjmp	.+2      	; 0xa0 <.do_clear_bss_start>

0000009e <.do_clear_bss_loop>:
  9e:	1d 92       	st	X+, r1

000000a0 <.do_clear_bss_start>:
  a0:	a0 3a       	cpi	r26, 0xA0	; 160
  a2:	b1 07       	cpc	r27, r17
  a4:	e1 f7       	brne	.-8      	; 0x9e <.do_clear_bss_loop>
  a6:	0e 94 59 00 	call	0xb2	; 0xb2 <main>
  aa:	0c 94 73 02 	jmp	0x4e6	; 0x4e6 <_exit>

000000ae <__bad_interrupt>:
  ae:	0c 94 00 00 	jmp	0	; 0x0 <__vectors>

000000b2 <main>:
#include <avr/interrupt.h>
#include "kernel.h"

uint64_t cur = 0, next = 0;

int main(void) {
  b2:	1f 93       	push	r17
    
	DDRD |= (1<<5);
  b4:	55 9a       	sbi	0x0a, 5	; 10
    Kernel_SysTick_Reg_Init(1000);
  b6:	88 ee       	ldi	r24, 0xE8	; 232
  b8:	93 e0       	ldi	r25, 0x03	; 3
  ba:	0e 94 87 01 	call	0x30e	; 0x30e <Kernel_SysTick_Reg_Init>
	Kernel_Task0_Init();
  be:	0e 94 f9 01 	call	0x3f2	; 0x3f2 <Kernel_Task0_Init>
	Kernel_Task1_Init();
  c2:	0e 94 36 02 	call	0x46c	; 0x46c <Kernel_Task1_Init>
	sei();
  c6:	78 94       	sei
	Kernel_Test_Task0();
  c8:	0e 94 ce 01 	call	0x39c	; 0x39c <Kernel_Test_Task0>
		
		while(next > cur){
		  cur = Kernel_SysTick_Val_Get();  
		}
		next  = Kernel_SysTick_Val_Get() + 50;
		PORTD ^= (1<<5);
  cc:	10 e2       	ldi	r17, 0x20	; 32
  ce:	12 c0       	rjmp	.+36     	; 0xf4 <main+0x42>
    while(1){
	    
        
		
		while(next > cur){
		  cur = Kernel_SysTick_Val_Get();  
  d0:	0e 94 b8 01 	call	0x370	; 0x370 <Kernel_SysTick_Val_Get>
  d4:	20 93 00 01 	sts	0x0100, r18
  d8:	30 93 01 01 	sts	0x0101, r19
  dc:	40 93 02 01 	sts	0x0102, r20
  e0:	50 93 03 01 	sts	0x0103, r21
  e4:	60 93 04 01 	sts	0x0104, r22
  e8:	70 93 05 01 	sts	0x0105, r23
  ec:	80 93 06 01 	sts	0x0106, r24
  f0:	90 93 07 01 	sts	0x0107, r25
	
    while(1){
	    
        
		
		while(next > cur){
  f4:	90 91 0f 01 	lds	r25, 0x010F
  f8:	80 91 07 01 	lds	r24, 0x0107
  fc:	89 17       	cp	r24, r25
  fe:	40 f3       	brcs	.-48     	; 0xd0 <main+0x1e>
 100:	98 17       	cp	r25, r24
 102:	c9 f5       	brne	.+114    	; 0x176 <main+0xc4>
 104:	90 91 0e 01 	lds	r25, 0x010E
 108:	80 91 06 01 	lds	r24, 0x0106
 10c:	89 17       	cp	r24, r25
 10e:	00 f3       	brcs	.-64     	; 0xd0 <main+0x1e>
 110:	98 17       	cp	r25, r24
 112:	89 f5       	brne	.+98     	; 0x176 <main+0xc4>
 114:	90 91 0d 01 	lds	r25, 0x010D
 118:	80 91 05 01 	lds	r24, 0x0105
 11c:	89 17       	cp	r24, r25
 11e:	c0 f2       	brcs	.-80     	; 0xd0 <main+0x1e>
 120:	98 17       	cp	r25, r24
 122:	49 f5       	brne	.+82     	; 0x176 <main+0xc4>
 124:	90 91 0c 01 	lds	r25, 0x010C
 128:	80 91 04 01 	lds	r24, 0x0104
 12c:	89 17       	cp	r24, r25
 12e:	80 f2       	brcs	.-96     	; 0xd0 <main+0x1e>
 130:	98 17       	cp	r25, r24
 132:	09 f5       	brne	.+66     	; 0x176 <main+0xc4>
 134:	90 91 0b 01 	lds	r25, 0x010B
 138:	80 91 03 01 	lds	r24, 0x0103
 13c:	89 17       	cp	r24, r25
 13e:	40 f2       	brcs	.-112    	; 0xd0 <main+0x1e>
 140:	98 17       	cp	r25, r24
 142:	c9 f4       	brne	.+50     	; 0x176 <main+0xc4>
 144:	90 91 0a 01 	lds	r25, 0x010A
 148:	80 91 02 01 	lds	r24, 0x0102
 14c:	89 17       	cp	r24, r25
 14e:	08 f4       	brcc	.+2      	; 0x152 <main+0xa0>
 150:	bf cf       	rjmp	.-130    	; 0xd0 <main+0x1e>
 152:	98 17       	cp	r25, r24
 154:	81 f4       	brne	.+32     	; 0x176 <main+0xc4>
 156:	90 91 09 01 	lds	r25, 0x0109
 15a:	80 91 01 01 	lds	r24, 0x0101
 15e:	89 17       	cp	r24, r25
 160:	08 f4       	brcc	.+2      	; 0x164 <main+0xb2>
 162:	b6 cf       	rjmp	.-148    	; 0xd0 <main+0x1e>
 164:	98 17       	cp	r25, r24
 166:	39 f4       	brne	.+14     	; 0x176 <main+0xc4>
 168:	90 91 08 01 	lds	r25, 0x0108
 16c:	80 91 00 01 	lds	r24, 0x0100
 170:	89 17       	cp	r24, r25
 172:	08 f4       	brcc	.+2      	; 0x176 <main+0xc4>
 174:	ad cf       	rjmp	.-166    	; 0xd0 <main+0x1e>
		  cur = Kernel_SysTick_Val_Get();  
		}
		next  = Kernel_SysTick_Val_Get() + 50;
 176:	0e 94 b8 01 	call	0x370	; 0x370 <Kernel_SysTick_Val_Get>
 17a:	b2 2f       	mov	r27, r18
 17c:	be 5c       	subi	r27, 0xCE	; 206
 17e:	e1 e0       	ldi	r30, 0x01	; 1
 180:	b2 17       	cp	r27, r18
 182:	08 f0       	brcs	.+2      	; 0x186 <main+0xd4>
 184:	e0 e0       	ldi	r30, 0x00	; 0
 186:	ae 2f       	mov	r26, r30
 188:	a3 0f       	add	r26, r19
 18a:	21 e0       	ldi	r18, 0x01	; 1
 18c:	a3 17       	cp	r26, r19
 18e:	08 f0       	brcs	.+2      	; 0x192 <main+0xe0>
 190:	20 e0       	ldi	r18, 0x00	; 0
 192:	f2 2f       	mov	r31, r18
 194:	f4 0f       	add	r31, r20
 196:	21 e0       	ldi	r18, 0x01	; 1
 198:	f4 17       	cp	r31, r20
 19a:	08 f0       	brcs	.+2      	; 0x19e <main+0xec>
 19c:	20 e0       	ldi	r18, 0x00	; 0
 19e:	e2 2f       	mov	r30, r18
 1a0:	e5 0f       	add	r30, r21
 1a2:	21 e0       	ldi	r18, 0x01	; 1
 1a4:	e5 17       	cp	r30, r21
 1a6:	08 f0       	brcs	.+2      	; 0x1aa <main+0xf8>
 1a8:	20 e0       	ldi	r18, 0x00	; 0
 1aa:	52 2f       	mov	r21, r18
 1ac:	56 0f       	add	r21, r22
 1ae:	21 e0       	ldi	r18, 0x01	; 1
 1b0:	56 17       	cp	r21, r22
 1b2:	08 f0       	brcs	.+2      	; 0x1b6 <main+0x104>
 1b4:	20 e0       	ldi	r18, 0x00	; 0
 1b6:	42 2f       	mov	r20, r18
 1b8:	47 0f       	add	r20, r23
 1ba:	21 e0       	ldi	r18, 0x01	; 1
 1bc:	47 17       	cp	r20, r23
 1be:	08 f0       	brcs	.+2      	; 0x1c2 <main+0x110>
 1c0:	20 e0       	ldi	r18, 0x00	; 0
 1c2:	32 2f       	mov	r19, r18
 1c4:	38 0f       	add	r19, r24
 1c6:	21 e0       	ldi	r18, 0x01	; 1
 1c8:	38 17       	cp	r19, r24
 1ca:	08 f0       	brcs	.+2      	; 0x1ce <main+0x11c>
 1cc:	20 e0       	ldi	r18, 0x00	; 0
 1ce:	29 0f       	add	r18, r25
 1d0:	b0 93 08 01 	sts	0x0108, r27
 1d4:	a0 93 09 01 	sts	0x0109, r26
 1d8:	f0 93 0a 01 	sts	0x010A, r31
 1dc:	e0 93 0b 01 	sts	0x010B, r30
 1e0:	50 93 0c 01 	sts	0x010C, r21
 1e4:	40 93 0d 01 	sts	0x010D, r20
 1e8:	30 93 0e 01 	sts	0x010E, r19
 1ec:	20 93 0f 01 	sts	0x010F, r18
		PORTD ^= (1<<5);
 1f0:	8b b1       	in	r24, 0x0b	; 11
 1f2:	81 27       	eor	r24, r17
 1f4:	8b b9       	out	0x0b, r24	; 11
 1f6:	7e cf       	rjmp	.-260    	; 0xf4 <main+0x42>

000001f8 <__vector_16>:
.global  __vector_16
    __vector_16:
	    
		;;============================if kernel debug enabled===============================;;
	    #ifdef KER_DBG_ENABLE
        SBI   KER_DBG_PORT       , KER_DBG_PIN            ;set gpio,                (2 clocks)
 1f8:	29 9a       	sbi	0x05, 1	; 5
		
		
		;;==============================context save========================================;;
		;; total 68 clocks for context saving
		#ifdef KER_CNTXT_SV_ISR
        PUSH  R0                                          ;save R0,                 (2 clocks)
 1fa:	0f 92       	push	r0
		IN    R0                 , IOSREG                 ;load SREG,               (1 clock )
 1fc:	0f b6       	in	r0, 0x3f	; 63
		PUSH  R0                                          ;save SREG,               (2 clocks)
 1fe:	0f 92       	push	r0
		PUSH  R1                                          ;save R1,                 (2 clocks)   
 200:	1f 92       	push	r1
		CLR   R1                                          ;clear R1,                (1 clock )
 202:	11 24       	eor	r1, r1
		PUSH  R2                                          ;save R2,                 (2 clocks)   
 204:	2f 92       	push	r2
		PUSH  R3                                          ;save R3,                 (2 clocks)   
 206:	3f 92       	push	r3
		PUSH  R4                                          ;save R4,                 (2 clocks)   
 208:	4f 92       	push	r4
		PUSH  R5                                          ;save R5,                 (2 clocks)   
 20a:	5f 92       	push	r5
		PUSH  R6                                          ;save R6,                 (2 clocks)   
 20c:	6f 92       	push	r6
		PUSH  R7                                          ;save R7,                 (2 clocks)   
 20e:	7f 92       	push	r7
		PUSH  R8                                          ;save R8,                 (2 clocks)   
 210:	8f 92       	push	r8
		PUSH  R9                                          ;save R9,                 (2 clocks)   
 212:	9f 92       	push	r9
		PUSH  R10                                         ;save R10,                (2 clocks)   
 214:	af 92       	push	r10
		PUSH  R11                                         ;save R11,                (2 clocks)  
 216:	bf 92       	push	r11
		PUSH  R12                                         ;save R12,                (2 clocks)  
 218:	cf 92       	push	r12
		PUSH  R13                                         ;save R13,                (2 clocks)  
 21a:	df 92       	push	r13
		PUSH  R14                                         ;save R14,                (2 clocks)  
 21c:	ef 92       	push	r14
		PUSH  R15                                         ;save R15,                (2 clocks)  
 21e:	ff 92       	push	r15
		PUSH  R16                                         ;save R16,                (2 clocks)  
 220:	0f 93       	push	r16
		PUSH  R17                                         ;save R17,                (2 clocks)  
 222:	1f 93       	push	r17
		PUSH  R18                                         ;save R18,                (2 clocks)  
 224:	2f 93       	push	r18
		PUSH  R19                                         ;save R19,                (2 clocks)  
 226:	3f 93       	push	r19
		PUSH  R20                                         ;save R20,                (2 clocks)  
 228:	4f 93       	push	r20
		PUSH  R21                                         ;save R21,                (2 clocks)  
 22a:	5f 93       	push	r21
		PUSH  R22                                         ;save R22,                (2 clocks)  
 22c:	6f 93       	push	r22
		PUSH  R23                                         ;save R23,                (2 clocks)  
 22e:	7f 93       	push	r23
		PUSH  R24                                         ;save R24,                (2 clocks)  
 230:	8f 93       	push	r24
		PUSH  R25                                         ;save R25,                (2 clocks)  
 232:	9f 93       	push	r25
		PUSH  R26                                         ;save R26,                (2 clocks)  
 234:	af 93       	push	r26
		PUSH  R27                                         ;save R27,                (2 clocks)  
 236:	bf 93       	push	r27
		PUSH  R28                                         ;save R28,                (2 clocks)  
 238:	cf 93       	push	r28
		PUSH  R29                                         ;save R29,                (2 clocks)  
 23a:	df 93       	push	r29
		PUSH  R30                                         ;save R30,                (2 clocks)  
 23c:	ef 93       	push	r30
		PUSH  R31                                         ;save R31,                (2 clocks)  
 23e:	ff 93       	push	r31
		#endif
		
		;;=============================reload counter value=================================;;
		;; total 4 clocks for reloading
		LDS   R16                , Kernel+0x08            ;fetch reload value,      (2 clocks) 
 240:	00 91 18 01 	lds	r16, 0x0118
		STS   SRTCNT0            , R16                    ;Set value to TCNT0,      (2 clocks) 
 244:	00 93 46 00 	sts	0x0046, r16
		
		
		;;=============================increment tick counter===============================;;
		;; total 27 clocks for reloading, 40 bit counter
		LDI   R16                , 0x01                   ;load 1 to R16,           (1 clock )
 248:	01 e0       	ldi	r16, 0x01	; 1
		LDS   R17                , Kernel+0x00            ;load Byte0,              (2 clocks)
 24a:	10 91 10 01 	lds	r17, 0x0110
		ADD   R17                , R16                    ;add 1 with Byte0,        (1 clock )
 24e:	10 0f       	add	r17, r16
		STS   Kernel+0x00        , R17                    ;set Byte0,               (2 clocks)
 250:	10 93 10 01 	sts	0x0110, r17
		LDI   R16                , 0x00                   ;load 0 to R16,           (1 clock )
 254:	00 e0       	ldi	r16, 0x00	; 0
		LDS   R17                , Kernel+0x01            ;load Byte1,              (2 clocks)
 256:	10 91 11 01 	lds	r17, 0x0111
		ADC   R17                , R16                    ;add carry with Byte1,    (1 clock )
 25a:	10 1f       	adc	r17, r16
		STS   Kernel+0x01        , R17                    ;set Byte1,               (2 clocks)
 25c:	10 93 11 01 	sts	0x0111, r17
		LDS   R17                , Kernel+0x02            ;load Byte2,              (2 clocks)
 260:	10 91 12 01 	lds	r17, 0x0112
		ADC   R17                , R16                    ;add carry with Byte2,    (1 clock )
 264:	10 1f       	adc	r17, r16
		STS   Kernel+0x02        , R17                    ;set Byte2,               (2 clocks)
 266:	10 93 12 01 	sts	0x0112, r17
		LDS   R17                , Kernel+0x03            ;load Byte3,              (2 clocks)
 26a:	10 91 13 01 	lds	r17, 0x0113
		ADC   R17                , R16                    ;add carry with Byte3,    (1 clock )
 26e:	10 1f       	adc	r17, r16
		STS   Kernel+0x03        , R17                    ;set Byte3,               (2 clocks)
 270:	10 93 13 01 	sts	0x0113, r17
		LDS   R17                , Kernel+0x04            ;load Byte4,              (2 clocks)
 274:	10 91 14 01 	lds	r17, 0x0114
		ADC   R17                , R16                    ;add carry with Byte4,    (1 clock )
 278:	10 1f       	adc	r17, r16
		STS   Kernel+0x04        , R17                    ;set Byte4,               (2 clocks)
 27a:	10 93 14 01 	sts	0x0114, r17
		
		
		;;========================check current task index, save SP=========================;;
		;;
		#ifdef KER_TSK_SW_ISR
	    LDS   R16                , ker_tski               ;fetch task index,        (2 clocks)
 27e:	00 91 19 01 	lds	r16, 0x0119
		CPI   R16                , 0                      ;check if val!=0          (1 clock )
 282:	00 30       	cpi	r16, 0x00	; 0
		BRNE  TSK1                                        ;goto saving task1 SP     (2 clocks)
 284:	81 f4       	brne	.+32     	; 0x2a6 <TSK1>

00000286 <TSK0>:
		
		
		;;======================save stack pointer0, set task index 1=======================;;
		;;
	TSK0:
	    IN    R24                , IOSPL                  ;fetch SPL0,              (1 clock )
 286:	8d b7       	in	r24, 0x3d	; 61
		IN    R25                , IOSPH                  ;fetch SPH0,              (1 clock )
 288:	9e b7       	in	r25, 0x3e	; 62
		STS   ker_stp+0x00       , R24                    ;load  SPL0,              (2 clocks)
 28a:	80 93 1a 01 	sts	0x011A, r24
		STS   ker_stp+0x01       , R25                    ;load  SPH0,              (2 clocks)
 28e:	90 93 1b 01 	sts	0x011B, r25
		LDI   R16                , 0x01                   ;set ker_tski to 1,       (1 clock )
 292:	01 e0       	ldi	r16, 0x01	; 1
		STS   ker_tski           , R16                    ;load  ker_tski=1,        (2 clocks)
 294:	00 93 19 01 	sts	0x0119, r16
		LDS   R24                , ker_stp+0x02           ;fetch SPL0,              (2 clocks)
 298:	80 91 1c 01 	lds	r24, 0x011C
		LDS   R25                , ker_stp+0x03           ;fetch SPH0,              (2 clocks)
 29c:	90 91 1d 01 	lds	r25, 0x011D
		OUT   IOSPL              , R24                    ;load SPL0,               (1 clock )
 2a0:	8d bf       	out	0x3d, r24	; 61
		OUT   IOSPH              , R25                    ;load SPH0,               (1 clock )
 2a2:	9e bf       	out	0x3e, r25	; 62
		RJMP  RS_CNTXT                                    ;jump to restore context, (2 clocks)
 2a4:	10 c0       	rjmp	.+32     	; 0x2c6 <RS_CNTXT>

000002a6 <TSK1>:
		
		
	    ;;======================save stack pointer1, set task index 0=======================;;
		;;
	TSK1:
	    IN    R24                , IOSPL                  ;fetch SPL0,              (1 clock )
 2a6:	8d b7       	in	r24, 0x3d	; 61
		IN    R25                , IOSPH                  ;fetch SPH0,              (1 clock )
 2a8:	9e b7       	in	r25, 0x3e	; 62
		STS   ker_stp+0x02       , R24                    ;load  SPL0,              (2 clocks)
 2aa:	80 93 1c 01 	sts	0x011C, r24
		STS   ker_stp+0x03       , R25                    ;load  SPH0,              (2 clocks)
 2ae:	90 93 1d 01 	sts	0x011D, r25
		LDI   R16                , 0x00                   ;set ker_tski to 0,       (1 clock )
 2b2:	00 e0       	ldi	r16, 0x00	; 0
		STS   ker_tski           , R16                    ;load  ker_tski=0,        (2 clocks)
 2b4:	00 93 19 01 	sts	0x0119, r16
		LDS   R24                , ker_stp+0x00           ;fetch SPL0,              (2 clocks)
 2b8:	80 91 1a 01 	lds	r24, 0x011A
		LDS   R25                , ker_stp+0x01           ;fetch SPH0,              (2 clocks)
 2bc:	90 91 1b 01 	lds	r25, 0x011B
		OUT   IOSPL              , R24                    ;load SPL0,               (1 clock )
 2c0:	8d bf       	out	0x3d, r24	; 61
		OUT   IOSPH              , R25                    ;load SPH0,               (1 clock )
 2c2:	9e bf       	out	0x3e, r25	; 62
		RJMP  RS_CNTXT                                    ;jump to restore context, (2 clocks)
 2c4:	00 c0       	rjmp	.+0      	; 0x2c6 <RS_CNTXT>

000002c6 <RS_CNTXT>:
		
	RS_CNTXT:
		;;===============================context restore====================================;;
		;; total 68 clocks for context restore
		#ifdef KER_CNTXT_RS_ISR
		POP   R31                                         ;restore R31,             (2 clocks) 
 2c6:	ff 91       	pop	r31
		POP   R30                                         ;restore R30,             (2 clocks) 
 2c8:	ef 91       	pop	r30
		POP   R29                                         ;restore R29,             (2 clocks)
 2ca:	df 91       	pop	r29
		POP   R28                                         ;restore R28,             (2 clocks) 
 2cc:	cf 91       	pop	r28
		POP   R27                                         ;restore R27,             (2 clocks) 
 2ce:	bf 91       	pop	r27
		POP   R26                                         ;restore R26,             (2 clocks) 
 2d0:	af 91       	pop	r26
		POP   R25                                         ;restore R25,             (2 clocks) 
 2d2:	9f 91       	pop	r25
		POP   R24                                         ;restore R24,             (2 clocks) 
 2d4:	8f 91       	pop	r24
		POP   R23                                         ;restore R23,             (2 clocks) 
 2d6:	7f 91       	pop	r23
		POP   R22                                         ;restore R22,             (2 clocks) 
 2d8:	6f 91       	pop	r22
		POP   R21                                         ;restore R21,             (2 clocks) 
 2da:	5f 91       	pop	r21
		POP   R20                                         ;restore R20,             (2 clocks) 
 2dc:	4f 91       	pop	r20
		POP   R19                                         ;restore R19,             (2 clocks) 
 2de:	3f 91       	pop	r19
		POP   R18                                         ;restore R18,             (2 clocks) 
 2e0:	2f 91       	pop	r18
		POP   R17                                         ;restore R17,             (2 clocks) 
 2e2:	1f 91       	pop	r17
		POP   R16                                         ;restore R16,             (2 clocks) 
 2e4:	0f 91       	pop	r16
		POP   R15                                         ;restore R15,             (2 clocks) 
 2e6:	ff 90       	pop	r15
		POP   R14                                         ;restore R14,             (2 clocks) 
 2e8:	ef 90       	pop	r14
		POP   R13                                         ;restore R13,             (2 clocks) 
 2ea:	df 90       	pop	r13
		POP   R12                                         ;restore R12,             (2 clocks) 
 2ec:	cf 90       	pop	r12
		POP   R11                                         ;restore R11,             (2 clocks) 
 2ee:	bf 90       	pop	r11
		POP   R10                                         ;restore R10,             (2 clocks) 
 2f0:	af 90       	pop	r10
		POP   R9                                          ;restore R9,              (2 clocks) 
 2f2:	9f 90       	pop	r9
		POP   R8                                          ;restore R8,              (2 clocks) 
 2f4:	8f 90       	pop	r8
		POP   R7                                          ;restore R7,              (2 clocks) 
 2f6:	7f 90       	pop	r7
		POP   R6                                          ;restore R6,              (2 clocks) 
 2f8:	6f 90       	pop	r6
		POP   R5                                          ;restore R5,              (2 clocks) 
 2fa:	5f 90       	pop	r5
		POP   R4                                          ;restore R4,              (2 clocks) 
 2fc:	4f 90       	pop	r4
		POP   R3                                          ;restore R3,              (2 clocks) 
 2fe:	3f 90       	pop	r3
		POP   R2                                          ;restore R2,              (2 clocks) 
 300:	2f 90       	pop	r2
		POP   R1                                          ;restore R1,              (2 clocks) 
 302:	1f 90       	pop	r1
		POP   R0                                          ;fetch SREG,              (2 clocks) 
 304:	0f 90       	pop	r0
		OUT   0x3F               , R0                     ;load SREG,               (1 clock ) 
 306:	0f be       	out	0x3f, r0	; 63
		POP   R0                                          ;restore R0,              (2 clocks) 
 308:	0f 90       	pop	r0
		#endif
		
		;;============================if kernel debug enabled===============================;;
		#ifdef KER_DBG_ENABLE
		CBI   KER_DBG_PORT       , KER_DBG_PIN            ;clear gpio,              (2 clocks)
 30a:	29 98       	cbi	0x05, 1	; 5
		#endif
		
		RETI                                              ;return from interrupt,   (4 clocks) 
 30c:	18 95       	reti

0000030e <Kernel_SysTick_Reg_Init>:

;;====================================SysTick Reg Init=======================================;;
;; total 32 clocks for SysTick Reg Init, omited debug gpio config
Kernel_SysTick_Reg_Init:
        ;clear all kernel variables
		LDI   R16                , 0x00                   ;set 0x00 to R16,         (1 clock )
 30e:	00 e0       	ldi	r16, 0x00	; 0
		STS   Kernel+0x00        , R16                    ;clear  kernel[0],        (2 clocks)
 310:	00 93 10 01 	sts	0x0110, r16
		STS   Kernel+0x01        , R16                    ;clear  kernel[1],        (2 clocks)
 314:	00 93 11 01 	sts	0x0111, r16
		STS   Kernel+0x02        , R16                    ;clear  kernel[2],        (2 clocks)
 318:	00 93 12 01 	sts	0x0112, r16
		STS   Kernel+0x03        , R16                    ;clear  kernel[3],        (2 clocks)
 31c:	00 93 13 01 	sts	0x0113, r16
		STS   Kernel+0x04        , R16                    ;clear  kernel[4],        (2 clocks)
 320:	00 93 14 01 	sts	0x0114, r16
		STS   Kernel+0x05        , R16                    ;clear  kernel[5],        (2 clocks)
 324:	00 93 15 01 	sts	0x0115, r16
		STS   Kernel+0x06        , R16                    ;clear  kernel[6],        (2 clocks)
 328:	00 93 16 01 	sts	0x0116, r16
		STS   Kernel+0x07        , R16                    ;clear  kernel[7],        (2 clocks)
 32c:	00 93 17 01 	sts	0x0117, r16
		STS   Kernel+0x08        , R16                    ;clear  kernel[8],        (2 clocks)
 330:	00 93 18 01 	sts	0x0118, r16
		
		#ifdef KER_DBG_ENABLE
		SBI   KER_DBG_DDR        , KER_DBG_PIN            ;set bit in DDR,          (2 clocks) 
 334:	21 9a       	sbi	0x04, 1	; 4
		CBI   KER_DBG_PORT       , KER_DBG_PIN            ;clear port bit,          (2 clocks) 
 336:	29 98       	cbi	0x05, 1	; 5
		#endif
		
		
        CLI                                               ;disable global interrupt,(1 clock ) 
 338:	f8 94       	cli
		LDI   R16                , 0x00                   ;store r16 with 0,        (1 clock ) 
 33a:	00 e0       	ldi	r16, 0x00	; 0
		STS   SRTCCR0A           , R16                    ;clear TCCR0A,            (2 clocks) 
 33c:	00 93 44 00 	sts	0x0044, r16
		STS   SRTCCR0B           , R16                    ;clear TCCR0B,            (2 clocks) 
 340:	00 93 45 00 	sts	0x0045, r16
		STS   SRTIMSK0           , R16                    ;clear TIMSK0,            (2 clocks) 
 344:	00 93 6e 00 	sts	0x006E, r16
		STS   SRTIFR0            , R16                    ;clear TIFR0,             (2 clocks) 
 348:	00 93 35 00 	sts	0x0035, r16
		STS   SROCR0A            , R16                    ;clear OCR0A,             (2 clocks) 
 34c:	00 93 47 00 	sts	0x0047, r16
		STS   SROCR0B            , R16                    ;clear OCR0B,             (2 clocks) 
 350:	00 93 48 00 	sts	0x0048, r16
		STS   SRTCNT0            , R16                    ;clear TCNT0,             (2 clocks) 
 354:	00 93 46 00 	sts	0x0046, r16
		LDI   R16                , KER_PRS                ;prescaler 64,            (1 clock ) 
 358:	03 e0       	ldi	r16, 0x03	; 3
		STS   SRTCCR0B           , R16                    ;set to TCCR0B,           (2 clocks)
 35a:	00 93 45 00 	sts	0x0045, r16
		LDI   R16                , KER_RLD                ;reload value (130),      (1 clock ) 
 35e:	02 e8       	ldi	r16, 0x82	; 130
		STS   Kernel+0x08        , R16                    ;Kernel[5] reload value,  (2 clocks) 
 360:	00 93 18 01 	sts	0x0118, r16
		STS   SRTCNT0            , R16                    ;set to TCNT0,            (2 clocks) 
 364:	00 93 46 00 	sts	0x0046, r16
		LDI   R16                , 0x01                   ;store with TOIE0 enabled,(1 clock ) 
 368:	01 e0       	ldi	r16, 0x01	; 1
		STS   SRTIMSK0           , R16                    ;set to TIMSK0,           (2 clocks) 
 36a:	00 93 6e 00 	sts	0x006E, r16
		;SEI                                               ;enable global interrupt, (1 clock ) 
		RET                                               ;return from subroutine,  (4 clocks) 
 36e:	08 95       	ret

00000370 <Kernel_SysTick_Val_Get>:

;;===================================SysTick Value Get======================================;;
;; total 20 clocks for SysTick Value Get
;; interrupts disabled for 16 clocks
Kernel_SysTick_Val_Get:
        IN    R16                , IOSREG                 ;Save SREG,               (1 clock ) 
 370:	0f b7       	in	r16, 0x3f	; 63
        CLI                                               ;Disable interrupts,      (1 clock ) 
 372:	f8 94       	cli
		LDS   R18		         , Kernel+0x00            ;Byte0 -> R18 (LSB),      (2 clocks) 
 374:	20 91 10 01 	lds	r18, 0x0110
		LDS   R19		         , Kernel+0x01            ;Byte1 -> R19,            (2 clocks) 
 378:	30 91 11 01 	lds	r19, 0x0111
		LDS   R20		         , Kernel+0x02            ;Byte2 -> R20,            (2 clocks) 
 37c:	40 91 12 01 	lds	r20, 0x0112
		LDS   R21		         , Kernel+0x03            ;Byte3 -> R21,            (2 clocks) 
 380:	50 91 13 01 	lds	r21, 0x0113
		LDS   R22		         , Kernel+0x04            ;Byte4 -> R22,            (2 clocks) 
 384:	60 91 14 01 	lds	r22, 0x0114
		LDI   R23		         , 0x00                   ;Byte5 -> R23,            (1 clocks) 
 388:	70 e0       	ldi	r23, 0x00	; 0
		LDI   R24		         , 0x00                   ;Byte6 -> R24,            (1 clocks) 
 38a:	80 e0       	ldi	r24, 0x00	; 0
		LDI   R25		         , 0x00                   ;Byte7 -> R25 (MSB),      (1 clocks) 
 38c:	90 e0       	ldi	r25, 0x00	; 0
		OUT   IOSREG             , R16          		  ;Restore SREG,            (1 clock )
 38e:	0f bf       	out	0x3f, r16	; 63
		RET                                               ;return from subroutine,  (4 clocks) 
 390:	08 95       	ret

00000392 <Kernel_Interrupt_Sts_Get>:


;;=================================Interrupt Status Get=====================================;;
;; total 10 clocks for Interrupt Status Get
Kernel_Interrupt_Sts_Get:
        LDI   R24		         , 0x00                   ;clear R24,               (1 clock ) 
 392:	80 e0       	ldi	r24, 0x00	; 0
        IN    R16		         , IOSREG                 ;save SREG in R16,        (1 clock )
 394:	0f b7       	in	r16, 0x3f	; 63
		SBRC  R16		         , 0x07                   ;check I flag->bit7,      (3 clocks)
 396:	07 fd       	sbrc	r16, 7
		LDI   R24		         , 0x01                   ;set R24 to 1,            (1 clock ) 
 398:	81 e0       	ldi	r24, 0x01	; 1
		RET                                               ;return from subroutine,  (4 clocks) 
 39a:	08 95       	ret

0000039c <Kernel_Test_Task0>:


;;===================================Kernel Test Task0======================================;;
Kernel_Test_Task0:
        ;initialize DDR and Port register, total 4 clocks
        SBI   KER_TSK0_DDR       , KER_TSK0_PIN           ;set bit in DDR,          (2 clocks) 
 39c:	55 9a       	sbi	0x0a, 5	; 10
		CBI   KER_TSK0_PORT      , KER_TSK0_PIN           ;clear port bit,          (2 clocks)
 39e:	5d 98       	cbi	0x0b, 5	; 11

000003a0 <LOOP0>:
		 
    LOOP0:
	    ;pin toggle, total 5 clocks
		IN    R16                , KER_TSK0_PORT          ;load PORT val,           (2 clocks)
 3a0:	0b b1       	in	r16, 0x0b	; 11
		LDI   R17                , (1<<KER_TSK0_PIN)      ;bit mask for port pin    (1 clock )
 3a2:	10 e2       	ldi	r17, 0x20	; 32
		EOR   R16                , R17                    ;XOR with current val     (1 clock )
 3a4:	01 27       	eor	r16, r17
		OUT   KER_TSK0_PORT      , R16                    ;set new PORT val,        (1 clock )
 3a6:	0b b9       	out	0x0b, r16	; 11
		
		;assign delay loop count val, for 30ms 
		LDI   R16                , 0xEB                   ;set loop cnt val,        (1 clock )
 3a8:	0b ee       	ldi	r16, 0xEB	; 235

000003aa <DLY00>:
		
    DLY00:
	    LDI   R17                , 0xFF                   ;set loop cnt val,        (1 clock )
 3aa:	1f ef       	ldi	r17, 0xFF	; 255

000003ac <DLY01>:
		
	DLY01:                                                ;inner loop,127.5uS@8Mhz  (4 clocks)
		NOP                                               ;no operation,            (1 clock )
 3ac:	00 00       	nop
		DEC   R17                                         ;decrement R17 val,       (1 clock )
 3ae:	1a 95       	dec	r17
		BRNE  DLY01                                       ;if R17 not equal to 0,   (2 clock ) 
 3b0:	e9 f7       	brne	.-6      	; 0x3ac <DLY01>
		DEC   R16                                         ;decrement R16 val,       (1 clock )
 3b2:	0a 95       	dec	r16
		BRNE  DLY00                                       ;if R16 not equal to 0,   (2 clock ) 
 3b4:	d1 f7       	brne	.-12     	; 0x3aa <DLY00>
		RJMP  LOOP0                                       ;if R16 is 0->jump,       (2 clock ) 
 3b6:	f4 cf       	rjmp	.-24     	; 0x3a0 <LOOP0>
		RET                                               ;return from subroutine,  (4 clocks) 
 3b8:	08 95       	ret

000003ba <Kernel_Test_Task1>:


;;===================================Kernel Test Task1======================================;;
Kernel_Test_Task1:
        ;initialize DDR and Port register, total 4 clocks
        SBI   KER_TSK1_DDR       , KER_TSK1_PIN           ;set bit in DDR,          (2 clocks) 
 3ba:	56 9a       	sbi	0x0a, 6	; 10
		CBI   KER_TSK1_PORT      , KER_TSK1_PIN           ;clear port bit,          (2 clocks)
 3bc:	5e 98       	cbi	0x0b, 6	; 11

000003be <LOOP1>:
		 
    LOOP1:
	    ;pin toggle, total 5 clocks
		IN    R16                , KER_TSK1_PORT          ;load PORT val,           (2 clocks)
 3be:	0b b1       	in	r16, 0x0b	; 11
		LDI   R17                , (1<<KER_TSK1_PIN)      ;bit mask for port pin    (1 clock )
 3c0:	10 e4       	ldi	r17, 0x40	; 64
		EOR   R16                , R17                    ;XOR with current val     (1 clock )
 3c2:	01 27       	eor	r16, r17
		OUT   KER_TSK1_PORT      , R16                    ;set new PORT val,        (1 clock )
 3c4:	0b b9       	out	0x0b, r16	; 11
		
		;assign delay loop count val, for 30ms 
		LDI   R16                , 0xEB                   ;set loop cnt val,        (1 clock )
 3c6:	0b ee       	ldi	r16, 0xEB	; 235

000003c8 <DLY10>:
		
    DLY10:
	    LDI   R17                , 0xFF                   ;set loop cnt val,        (1 clock )
 3c8:	1f ef       	ldi	r17, 0xFF	; 255

000003ca <DLY11>:
		
	DLY11:                                                ;inner loop,127.5uS@8Mhz  (4 clocks)
		NOP                                               ;no operation,            (1 clock )
 3ca:	00 00       	nop
		DEC   R17                                         ;decrement R17 val,       (1 clock )
 3cc:	1a 95       	dec	r17
		BRNE  DLY11                                       ;if R17 not equal to 0,   (2 clock ) 
 3ce:	e9 f7       	brne	.-6      	; 0x3ca <DLY11>
		DEC   R16                                         ;decrement R16 val,       (1 clock )
 3d0:	0a 95       	dec	r16
		BRNE  DLY10                                       ;if R16 not equal to 0,   (2 clock ) 
 3d2:	d1 f7       	brne	.-12     	; 0x3c8 <DLY10>
		RJMP  LOOP1                                       ;if R16 is 0->jump,       (2 clock ) 
 3d4:	f4 cf       	rjmp	.-24     	; 0x3be <LOOP1>

000003d6 <Kernel_Test_Task2>:


;;===================================Kernel Test Task2======================================;;
Kernel_Test_Task2:
        ;initialize DDR and Port register, total 4 clocks
        SBI   KER_TSK2_DDR       , KER_TSK2_PIN           ;set bit in DDR,          (2 clocks) 
 3d6:	57 9a       	sbi	0x0a, 7	; 10
		CBI   KER_TSK2_PORT      , KER_TSK2_PIN           ;clear port bit,          (2 clocks)
 3d8:	5f 98       	cbi	0x0b, 7	; 11

000003da <LOOP2>:
		 
    LOOP2:
	    ;pin toggle, total 5 clocks
		IN    R16                , KER_TSK2_PORT          ;load PORT val,           (2 clocks)
 3da:	0b b1       	in	r16, 0x0b	; 11
		LDI   R17                , (1<<KER_TSK2_PIN)      ;bit mask for port pin    (1 clock )
 3dc:	10 e8       	ldi	r17, 0x80	; 128
		EOR   R16                , R17                    ;XOR with current val     (1 clock )
 3de:	01 27       	eor	r16, r17
		OUT   KER_TSK2_PORT      , R16                    ;set new PORT val,        (1 clock )
 3e0:	0b b9       	out	0x0b, r16	; 11
		
		;assign delay loop count val, for 30ms 
		LDI   R16                , 0xEB                   ;set loop cnt val,        (1 clock )
 3e2:	0b ee       	ldi	r16, 0xEB	; 235

000003e4 <DLY20>:
		
    DLY20:
	    LDI   R17                , 0xFF                   ;set loop cnt val,        (1 clock )
 3e4:	1f ef       	ldi	r17, 0xFF	; 255

000003e6 <DLY21>:
		
	DLY21:                                                ;inner loop, 127.5uS@8Mhz (4 clocks)
		NOP                                               ;no operation,            (1 clock )
 3e6:	00 00       	nop
		DEC   R17                                         ;decrement R17 val,       (1 clock )
 3e8:	1a 95       	dec	r17
		BRNE  DLY21                                       ;if R17 not equal to 0,   (2 clock ) 
 3ea:	e9 f7       	brne	.-6      	; 0x3e6 <DLY21>
		DEC   R16                                         ;decrement R16 val,       (1 clock )
 3ec:	0a 95       	dec	r16
		BRNE  DLY20                                       ;if R16 not equal to 0,   (2 clock ) 
 3ee:	d1 f7       	brne	.-12     	; 0x3e4 <DLY20>
		RJMP  LOOP2                                       ;if R16 is 0->jump,       (2 clock ) 
 3f0:	f4 cf       	rjmp	.-24     	; 0x3da <LOOP2>

000003f2 <Kernel_Task0_Init>:
    

;;====================================Kernel Task0 Init=====================================;;
Kernel_Task0_Init:
        ;init stack for task0
		LDI   R18                , lo8(ker_stk0+KER_STZ)  ;fetch top SPL1,          (1 clock )
 3f2:	20 ea       	ldi	r18, 0xA0	; 160
		LDI   R19                , hi8(ker_stk0+KER_STZ)  ;fetch top SPH1,          (1 clock )
 3f4:	31 e0       	ldi	r19, 0x01	; 1
		
		LDI   R16                , lo8(Kernel_Test_Task0) ;fetch task address low,  (1 clock )
 3f6:	0c e9       	ldi	r16, 0x9C	; 156
		STS   ker_stk0+KER_STZ-1 , R16                    ;load at stack_top-1,     (2 clocks) 
 3f8:	00 93 9f 01 	sts	0x019F, r16
		LDI   R16                , hi8(Kernel_Test_Task0) ;fetch task address high, (1 clock )
 3fc:	03 e0       	ldi	r16, 0x03	; 3
		STS   ker_stk0+KER_STZ-2 , R16                    ;load at stack_top-2,     (2 clocks) 
 3fe:	00 93 9e 01 	sts	0x019E, r16
		
		SUBI  R18                , 2                      ;SP to point stack start, (1 clock )
 402:	22 50       	subi	r18, 0x02	; 2
		STS   ker_stp+0          , R18                    ;store current SP,        (2 clocks) 
 404:	20 93 1a 01 	sts	0x011A, r18
		STS   ker_stp+1          , R19                    ;store current SP,        (2 clocks) 
 408:	30 93 1b 01 	sts	0x011B, r19
		
		OUT   IOSPL              , R18                    ;load SPL                 (1 clock )
 40c:	2d bf       	out	0x3d, r18	; 61
        OUT   IOSPH              , R19                    ;load SPH                 (1 clock )
 40e:	3e bf       	out	0x3e, r19	; 62
		
		LDI   R16                , lo8(Kernel_Test_Task0) ;fetch task address low,  (1 clock )
 410:	0c e9       	ldi	r16, 0x9C	; 156
		PUSH  R16                                         ;push,                    (2 clocks) 
 412:	0f 93       	push	r16
		LDI   R16                , hi8(Kernel_Test_Task0) ;fetch task address high, (1 clock )
 414:	03 e0       	ldi	r16, 0x03	; 3
		PUSH  R16                                         ;push,                    (2 clocks) 
 416:	0f 93       	push	r16
		
		
        ;;==============================context save========================================;;
		;; total 68 clocks for context saving
        PUSH  R0                                          ;save R0,                 (2 clocks)
 418:	0f 92       	push	r0
		IN    R0                 , IOSREG                 ;load SREG,               (1 clock )
 41a:	0f b6       	in	r0, 0x3f	; 63
		PUSH  R0                                          ;save SREG,               (2 clocks)
 41c:	0f 92       	push	r0
		PUSH  R1                                          ;save R1,                 (2 clocks)   
 41e:	1f 92       	push	r1
		CLR   R1                                          ;clear R1,                (1 clock )
 420:	11 24       	eor	r1, r1
		PUSH  R2                                          ;save R2,                 (2 clocks)   
 422:	2f 92       	push	r2
		PUSH  R3                                          ;save R3,                 (2 clocks)   
 424:	3f 92       	push	r3
		PUSH  R4                                          ;save R4,                 (2 clocks)   
 426:	4f 92       	push	r4
		PUSH  R5                                          ;save R5,                 (2 clocks)   
 428:	5f 92       	push	r5
		PUSH  R6                                          ;save R6,                 (2 clocks)   
 42a:	6f 92       	push	r6
		PUSH  R7                                          ;save R7,                 (2 clocks)   
 42c:	7f 92       	push	r7
		PUSH  R8                                          ;save R8,                 (2 clocks)   
 42e:	8f 92       	push	r8
		PUSH  R9                                          ;save R9,                 (2 clocks)   
 430:	9f 92       	push	r9
		PUSH  R10                                         ;save R10,                (2 clocks)   
 432:	af 92       	push	r10
		PUSH  R11                                         ;save R11,                (2 clocks)  
 434:	bf 92       	push	r11
		PUSH  R12                                         ;save R12,                (2 clocks)  
 436:	cf 92       	push	r12
		PUSH  R13                                         ;save R13,                (2 clocks)  
 438:	df 92       	push	r13
		PUSH  R14                                         ;save R14,                (2 clocks)  
 43a:	ef 92       	push	r14
		PUSH  R15                                         ;save R15,                (2 clocks)  
 43c:	ff 92       	push	r15
		PUSH  R16                                         ;save R16,                (2 clocks)  
 43e:	0f 93       	push	r16
		PUSH  R17                                         ;save R17,                (2 clocks)  
 440:	1f 93       	push	r17
		PUSH  R18                                         ;save R18,                (2 clocks)  
 442:	2f 93       	push	r18
		PUSH  R19                                         ;save R19,                (2 clocks)  
 444:	3f 93       	push	r19
		PUSH  R20                                         ;save R20,                (2 clocks)  
 446:	4f 93       	push	r20
		PUSH  R21                                         ;save R21,                (2 clocks)  
 448:	5f 93       	push	r21
		PUSH  R22                                         ;save R22,                (2 clocks)  
 44a:	6f 93       	push	r22
		PUSH  R23                                         ;save R23,                (2 clocks)  
 44c:	7f 93       	push	r23
		PUSH  R24                                         ;save R24,                (2 clocks)  
 44e:	8f 93       	push	r24
		PUSH  R25                                         ;save R25,                (2 clocks)  
 450:	9f 93       	push	r25
		PUSH  R26                                         ;save R26,                (2 clocks)  
 452:	af 93       	push	r26
		PUSH  R27                                         ;save R27,                (2 clocks)  
 454:	bf 93       	push	r27
		PUSH  R28                                         ;save R28,                (2 clocks)  
 456:	cf 93       	push	r28
		PUSH  R29                                         ;save R29,                (2 clocks)  
 458:	df 93       	push	r29
		PUSH  R30                                         ;save R30,                (2 clocks)  
 45a:	ef 93       	push	r30
		PUSH  R31                                         ;save R31,                (2 clocks) 
 45c:	ff 93       	push	r31
		
		;--- Step 5: Save current SP into ker_stp[1] (task1 pointer) ---
        IN    R18, IOSPL                                  ;fetch SPL                (1 clock )
 45e:	2d b7       	in	r18, 0x3d	; 61
        IN    R19, IOSPH                                  ;fetch SPH                (1 clock )
 460:	3e b7       	in	r19, 0x3e	; 62
        STS   ker_stp + 0        , R18                    ;set stp of task0         (2 clocks) 
 462:	20 93 1a 01 	sts	0x011A, r18
        STS   ker_stp + 1        , R19                    ;set stp of task0         (2 clocks) 
 466:	30 93 1b 01 	sts	0x011B, r19
		
        RET                                               ;return from subroutine,  (4 clocks) 
 46a:	08 95       	ret

0000046c <Kernel_Task1_Init>:


;;====================================Kernel Task0 Init=====================================;;
Kernel_Task1_Init:
        ;init stack for task0
		LDI   R18                , lo8(ker_stk1+KER_STZ)  ;fetch top SPL1,          (1 clock )
 46c:	20 e2       	ldi	r18, 0x20	; 32
		LDI   R19                , hi8(ker_stk1+KER_STZ)  ;fetch top SPH1,          (1 clock )
 46e:	32 e0       	ldi	r19, 0x02	; 2
		
		LDI   R16                , lo8(Kernel_Test_Task1) ;fetch task address low,  (1 clock )
 470:	0a eb       	ldi	r16, 0xBA	; 186
		STS   ker_stk1+KER_STZ-1 , R16                    ;load at stack_top-1,     (2 clocks) 
 472:	00 93 1f 02 	sts	0x021F, r16
		LDI   R16                , hi8(Kernel_Test_Task1) ;fetch task address high, (1 clock )
 476:	03 e0       	ldi	r16, 0x03	; 3
		STS   ker_stk1+KER_STZ-2 , R16                    ;load at stack_top-2,     (2 clocks) 
 478:	00 93 1e 02 	sts	0x021E, r16
		
		SUBI  R18                , 2                      ;SP to point stack start, (1 clock )
 47c:	22 50       	subi	r18, 0x02	; 2
		STS   ker_stp+2          , R18                    ;store current SP,        (2 clocks) 
 47e:	20 93 1c 01 	sts	0x011C, r18
		STS   ker_stp+3          , R19                    ;store current SP,        (2 clocks) 
 482:	30 93 1d 01 	sts	0x011D, r19
		
		OUT   IOSPL              , R18                    ;load SPL                 (1 clock )
 486:	2d bf       	out	0x3d, r18	; 61
        OUT   IOSPH              , R19                    ;load SPH                 (1 clock )
 488:	3e bf       	out	0x3e, r19	; 62
		
		LDI   R16                , lo8(Kernel_Test_Task1) ;fetch task address low,  (1 clock )
 48a:	0a eb       	ldi	r16, 0xBA	; 186
		PUSH  R16                                         ;push,                    (2 clocks) 
 48c:	0f 93       	push	r16
		LDI   R16                , hi8(Kernel_Test_Task1) ;fetch task address high, (1 clock )
 48e:	03 e0       	ldi	r16, 0x03	; 3
		PUSH  R16                                         ;push,                    (2 clocks) 
 490:	0f 93       	push	r16
		
		
        ;;==============================context save========================================;;
		;; total 68 clocks for context saving
        PUSH  R0                                          ;save R0,                 (2 clocks)
 492:	0f 92       	push	r0
		IN    R0                 , IOSREG                 ;load SREG,               (1 clock )
 494:	0f b6       	in	r0, 0x3f	; 63
		PUSH  R0                                          ;save SREG,               (2 clocks)
 496:	0f 92       	push	r0
		PUSH  R1                                          ;save R1,                 (2 clocks)   
 498:	1f 92       	push	r1
		CLR   R1                                          ;clear R1,                (1 clock )
 49a:	11 24       	eor	r1, r1
		PUSH  R2                                          ;save R2,                 (2 clocks)   
 49c:	2f 92       	push	r2
		PUSH  R3                                          ;save R3,                 (2 clocks)   
 49e:	3f 92       	push	r3
		PUSH  R4                                          ;save R4,                 (2 clocks)   
 4a0:	4f 92       	push	r4
		PUSH  R5                                          ;save R5,                 (2 clocks)   
 4a2:	5f 92       	push	r5
		PUSH  R6                                          ;save R6,                 (2 clocks)   
 4a4:	6f 92       	push	r6
		PUSH  R7                                          ;save R7,                 (2 clocks)   
 4a6:	7f 92       	push	r7
		PUSH  R8                                          ;save R8,                 (2 clocks)   
 4a8:	8f 92       	push	r8
		PUSH  R9                                          ;save R9,                 (2 clocks)   
 4aa:	9f 92       	push	r9
		PUSH  R10                                         ;save R10,                (2 clocks)   
 4ac:	af 92       	push	r10
		PUSH  R11                                         ;save R11,                (2 clocks)  
 4ae:	bf 92       	push	r11
		PUSH  R12                                         ;save R12,                (2 clocks)  
 4b0:	cf 92       	push	r12
		PUSH  R13                                         ;save R13,                (2 clocks)  
 4b2:	df 92       	push	r13
		PUSH  R14                                         ;save R14,                (2 clocks)  
 4b4:	ef 92       	push	r14
		PUSH  R15                                         ;save R15,                (2 clocks)  
 4b6:	ff 92       	push	r15
		PUSH  R16                                         ;save R16,                (2 clocks)  
 4b8:	0f 93       	push	r16
		PUSH  R17                                         ;save R17,                (2 clocks)  
 4ba:	1f 93       	push	r17
		PUSH  R18                                         ;save R18,                (2 clocks)  
 4bc:	2f 93       	push	r18
		PUSH  R19                                         ;save R19,                (2 clocks)  
 4be:	3f 93       	push	r19
		PUSH  R20                                         ;save R20,                (2 clocks)  
 4c0:	4f 93       	push	r20
		PUSH  R21                                         ;save R21,                (2 clocks)  
 4c2:	5f 93       	push	r21
		PUSH  R22                                         ;save R22,                (2 clocks)  
 4c4:	6f 93       	push	r22
		PUSH  R23                                         ;save R23,                (2 clocks)  
 4c6:	7f 93       	push	r23
		PUSH  R24                                         ;save R24,                (2 clocks)  
 4c8:	8f 93       	push	r24
		PUSH  R25                                         ;save R25,                (2 clocks)  
 4ca:	9f 93       	push	r25
		PUSH  R26                                         ;save R26,                (2 clocks)  
 4cc:	af 93       	push	r26
		PUSH  R27                                         ;save R27,                (2 clocks)  
 4ce:	bf 93       	push	r27
		PUSH  R28                                         ;save R28,                (2 clocks)  
 4d0:	cf 93       	push	r28
		PUSH  R29                                         ;save R29,                (2 clocks)  
 4d2:	df 93       	push	r29
		PUSH  R30                                         ;save R30,                (2 clocks)  
 4d4:	ef 93       	push	r30
		PUSH  R31                                         ;save R31,                (2 clocks) 
 4d6:	ff 93       	push	r31
		
		;--- Step 5: Save current SP into ker_stp[1] (task1 pointer) ---
        IN    R18, IOSPL                                  ;fetch SPL                (1 clock )
 4d8:	2d b7       	in	r18, 0x3d	; 61
        IN    R19, IOSPH                                  ;fetch SPH                (1 clock )
 4da:	3e b7       	in	r19, 0x3e	; 62
        STS   ker_stp + 2        , R18                    ;set stp of task0         (2 clocks) 
 4dc:	20 93 1c 01 	sts	0x011C, r18
        STS   ker_stp + 3        , R19                    ;set stp of task0         (2 clocks) 
 4e0:	30 93 1d 01 	sts	0x011D, r19
		
        RET                                               ;return from subroutine,  (4 clocks) 
 4e4:	08 95       	ret

000004e6 <_exit>:
 4e6:	f8 94       	cli

000004e8 <__stop_program>:
 4e8:	ff cf       	rjmp	.-2      	; 0x4e8 <__stop_program>
