
main.elf:     file format elf32-avr

Sections:
Idx Name          Size      VMA       LMA       File off  Algn
  0 .text         0000079c  00000000  00000000  00000074  2**1
                  CONTENTS, ALLOC, LOAD, READONLY, CODE
  1 .bss          00000554  00800100  00800100  00000810  2**0
                  ALLOC
  2 .stab         00000b4c  00000000  00000000  00000810  2**2
                  CONTENTS, READONLY, DEBUGGING
  3 .stabstr      0000006e  00000000  00000000  0000135c  2**0
                  CONTENTS, READONLY, DEBUGGING
  4 .debug_aranges 00000040  00000000  00000000  000013ca  2**0
                  CONTENTS, READONLY, DEBUGGING
  5 .debug_pubnames 000000bd  00000000  00000000  0000140a  2**0
                  CONTENTS, READONLY, DEBUGGING
  6 .debug_info   000001d3  00000000  00000000  000014c7  2**0
                  CONTENTS, READONLY, DEBUGGING
  7 .debug_abbrev 000000b1  00000000  00000000  0000169a  2**0
                  CONTENTS, READONLY, DEBUGGING
  8 .debug_line   0000030a  00000000  00000000  0000174b  2**0
                  CONTENTS, READONLY, DEBUGGING
  9 .debug_frame  000000c0  00000000  00000000  00001a58  2**2
                  CONTENTS, READONLY, DEBUGGING
 10 .debug_str    00000116  00000000  00000000  00001b18  2**0
                  CONTENTS, READONLY, DEBUGGING

Disassembly of section .text:

00000000 <__vectors>:
   0:	0c 94 45 00 	jmp	0x8a	; 0x8a <__ctors_end>
   4:	0c 94 4f 00 	jmp	0x9e	; 0x9e <__bad_interrupt>
   8:	0c 94 4f 00 	jmp	0x9e	; 0x9e <__bad_interrupt>
   c:	0c 94 4f 00 	jmp	0x9e	; 0x9e <__bad_interrupt>
  10:	0c 94 4f 00 	jmp	0x9e	; 0x9e <__bad_interrupt>
  14:	0c 94 4f 00 	jmp	0x9e	; 0x9e <__bad_interrupt>
  18:	0c 94 4f 00 	jmp	0x9e	; 0x9e <__bad_interrupt>
  1c:	0c 94 4f 00 	jmp	0x9e	; 0x9e <__bad_interrupt>
  20:	0c 94 4f 00 	jmp	0x9e	; 0x9e <__bad_interrupt>
  24:	0c 94 4f 00 	jmp	0x9e	; 0x9e <__bad_interrupt>
  28:	0c 94 4f 00 	jmp	0x9e	; 0x9e <__bad_interrupt>
  2c:	0c 94 4f 00 	jmp	0x9e	; 0x9e <__bad_interrupt>
  30:	0c 94 4f 00 	jmp	0x9e	; 0x9e <__bad_interrupt>
  34:	0c 94 4f 00 	jmp	0x9e	; 0x9e <__bad_interrupt>
  38:	0c 94 4f 00 	jmp	0x9e	; 0x9e <__bad_interrupt>
  3c:	0c 94 4f 00 	jmp	0x9e	; 0x9e <__bad_interrupt>
  40:	0c 94 59 01 	jmp	0x2b2	; 0x2b2 <__vector_16>
  44:	0c 94 4f 00 	jmp	0x9e	; 0x9e <__bad_interrupt>
  48:	0c 94 4f 00 	jmp	0x9e	; 0x9e <__bad_interrupt>
  4c:	0c 94 4f 00 	jmp	0x9e	; 0x9e <__bad_interrupt>
  50:	0c 94 4f 00 	jmp	0x9e	; 0x9e <__bad_interrupt>
  54:	0c 94 4f 00 	jmp	0x9e	; 0x9e <__bad_interrupt>
  58:	0c 94 4f 00 	jmp	0x9e	; 0x9e <__bad_interrupt>
  5c:	0c 94 4f 00 	jmp	0x9e	; 0x9e <__bad_interrupt>
  60:	0c 94 4f 00 	jmp	0x9e	; 0x9e <__bad_interrupt>
  64:	0c 94 4f 00 	jmp	0x9e	; 0x9e <__bad_interrupt>
  68:	00 00       	nop
  6a:	00 00       	nop
  6c:	00 00       	nop
  6e:	00 00       	nop
  70:	00 00       	nop
  72:	00 00       	nop
  74:	00 00       	nop
  76:	00 00       	nop
  78:	00 00       	nop
  7a:	00 00       	nop
  7c:	00 00       	nop
  7e:	00 00       	nop
  80:	00 00       	nop
  82:	00 00       	nop
  84:	00 00       	nop
  86:	00 00       	nop
  88:	14 c1       	rjmp	.+552    	; 0x2b2 <__vector_16>

0000008a <__ctors_end>:
  8a:	11 24       	eor	r1, r1
  8c:	1f be       	out	0x3f, r1	; 63
  8e:	cf ef       	ldi	r28, 0xFF	; 255
  90:	d8 e0       	ldi	r29, 0x08	; 8
  92:	de bf       	out	0x3e, r29	; 62
  94:	cd bf       	out	0x3d, r28	; 61
  96:	0e 94 51 00 	call	0xa2	; 0xa2 <main>
  9a:	0c 94 cc 03 	jmp	0x798	; 0x798 <_exit>

0000009e <__bad_interrupt>:
  9e:	0c 94 00 00 	jmp	0	; 0x0 <__vectors>

000000a2 <main>:
 

    
int main(void) {
    
	Kernel_Init();
  a2:	0e 94 01 03 	call	0x602	; 0x602 <Kernel_Init>
    
	//Kernel_SysTick_Reg_Init(0x03, 0x82);
	
	//Kernel_Task_Create(Kernel_Task_Idle,  5);
	Kernel_Task_Create(Tasks_Task0,  4);
  a6:	89 e3       	ldi	r24, 0x39	; 57
  a8:	91 e0       	ldi	r25, 0x01	; 1
  aa:	64 e0       	ldi	r22, 0x04	; 4
  ac:	0e 94 58 02 	call	0x4b0	; 0x4b0 <Kernel_Task_Create>
	Kernel_Task_Create(Tasks_Task1,  0);
  b0:	87 e1       	ldi	r24, 0x17	; 23
  b2:	91 e0       	ldi	r25, 0x01	; 1
  b4:	60 e0       	ldi	r22, 0x00	; 0
  b6:	0e 94 58 02 	call	0x4b0	; 0x4b0 <Kernel_Task_Create>
	Kernel_Task_Create(Tasks_Task2,  1);
  ba:	85 ef       	ldi	r24, 0xF5	; 245
  bc:	90 e0       	ldi	r25, 0x00	; 0
  be:	61 e0       	ldi	r22, 0x01	; 1
  c0:	0e 94 58 02 	call	0x4b0	; 0x4b0 <Kernel_Task_Create>
	Kernel_Task_Create(Tasks_Task3,  2);
  c4:	89 ed       	ldi	r24, 0xD9	; 217
  c6:	90 e0       	ldi	r25, 0x00	; 0
  c8:	62 e0       	ldi	r22, 0x02	; 2
  ca:	0e 94 58 02 	call	0x4b0	; 0x4b0 <Kernel_Task_Create>
	Kernel_Task_Create(Tasks_Task4,  3);
  ce:	8d eb       	ldi	r24, 0xBD	; 189
  d0:	90 e0       	ldi	r25, 0x00	; 0
  d2:	63 e0       	ldi	r22, 0x03	; 3
  d4:	0e 94 58 02 	call	0x4b0	; 0x4b0 <Kernel_Task_Create>
	//Kernel_Task_Create(Tasks_Task6,  3);
	//Kernel_Task_Create(Tasks_Task7,  1);
	//Kernel_Task_Create(Tasks_Task8,  7);
	
    
    Debug_Init(0);
  d8:	80 e0       	ldi	r24, 0x00	; 0
  da:	90 e0       	ldi	r25, 0x00	; 0
  dc:	0e 94 6e 03 	call	0x6dc	; 0x6dc <Debug_Init>
    Debug_Tx_Byte_Conf(Kernel_Task_Prio_Get(0));
  e0:	80 e0       	ldi	r24, 0x00	; 0
  e2:	0e 94 60 03 	call	0x6c0	; 0x6c0 <Kernel_Task_Prio_Get>
  e6:	0e 94 8f 03 	call	0x71e	; 0x71e <Debug_Tx_Byte_Conf>
    Debug_Tx_Byte_Conf(Kernel_Task_Prio_Get(1));
  ea:	81 e0       	ldi	r24, 0x01	; 1
  ec:	0e 94 60 03 	call	0x6c0	; 0x6c0 <Kernel_Task_Prio_Get>
  f0:	0e 94 8f 03 	call	0x71e	; 0x71e <Debug_Tx_Byte_Conf>
	Debug_Tx_Byte_Conf(Kernel_Task_Prio_Get(2));
  f4:	82 e0       	ldi	r24, 0x02	; 2
  f6:	0e 94 60 03 	call	0x6c0	; 0x6c0 <Kernel_Task_Prio_Get>
  fa:	0e 94 8f 03 	call	0x71e	; 0x71e <Debug_Tx_Byte_Conf>
	Debug_Tx_Byte_Conf(Kernel_Task_Prio_Get(3));
  fe:	83 e0       	ldi	r24, 0x03	; 3
 100:	0e 94 60 03 	call	0x6c0	; 0x6c0 <Kernel_Task_Prio_Get>
 104:	0e 94 8f 03 	call	0x71e	; 0x71e <Debug_Tx_Byte_Conf>
	Debug_Tx_Byte_Conf(Kernel_Task_Prio_Get(4));
 108:	84 e0       	ldi	r24, 0x04	; 4
 10a:	0e 94 60 03 	call	0x6c0	; 0x6c0 <Kernel_Task_Prio_Get>
 10e:	0e 94 8f 03 	call	0x71e	; 0x71e <Debug_Tx_Byte_Conf>
	Debug_Tx_Byte_Conf(Kernel_Task_Prio_Get(5));
 112:	85 e0       	ldi	r24, 0x05	; 5
 114:	0e 94 60 03 	call	0x6c0	; 0x6c0 <Kernel_Task_Prio_Get>
 118:	0e 94 8f 03 	call	0x71e	; 0x71e <Debug_Tx_Byte_Conf>
	
	Debug_Tx_Byte_Conf(Kernel_NTask_Get());
 11c:	0e 94 5d 03 	call	0x6ba	; 0x6ba <Kernel_NTask_Get>
 120:	0e 94 8f 03 	call	0x71e	; 0x71e <Debug_Tx_Byte_Conf>
    Debug_Tx_Byte_Conf(Kernel_High_Prio_Task_ID_Get());
 124:	0e 94 67 03 	call	0x6ce	; 0x6ce <Kernel_High_Prio_Task_ID_Get>
 128:	0e 94 8f 03 	call	0x71e	; 0x71e <Debug_Tx_Byte_Conf>
	Debug_Tx_Byte_Conf(Kernel_Abs_High_Prio_Task_ID_Get());
 12c:	0e 94 6b 03 	call	0x6d6	; 0x6d6 <Kernel_Abs_High_Prio_Task_ID_Get>
 130:	0e 94 8f 03 	call	0x71e	; 0x71e <Debug_Tx_Byte_Conf>
    
	//DDRD |= (1<<5);
	//PORTD ^= (1<<5);
	Kernel_Start_Tasks();
 134:	0e 94 c9 02 	call	0x592	; 0x592 <Kernel_Start_Tasks>
 138:	ff cf       	rjmp	.-2      	; 0x138 <SRUDR0+0x72>

0000013a <Tasks_Task8>:
  }
}

void Tasks_Task8(void){
  
  Debug_Init(0);
 13a:	80 e0       	ldi	r24, 0x00	; 0
 13c:	90 e0       	ldi	r25, 0x00	; 0
 13e:	0e 94 6e 03 	call	0x6dc	; 0x6dc <Debug_Init>
  uint16_t val = 240;
  
  while(1){
    
	  Debug_Tx_Byte_Conf(8);
 142:	88 e0       	ldi	r24, 0x08	; 8
 144:	0e 94 8f 03 	call	0x71e	; 0x71e <Debug_Tx_Byte_Conf>
 148:	fc cf       	rjmp	.-8      	; 0x142 <Tasks_Task8+0x8>

0000014a <Tasks_Task7>:
  }
}

void Tasks_Task7(void){
  
  Debug_Init(0);
 14a:	80 e0       	ldi	r24, 0x00	; 0
 14c:	90 e0       	ldi	r25, 0x00	; 0
 14e:	0e 94 6e 03 	call	0x6dc	; 0x6dc <Debug_Init>
  uint16_t val = 220;
  
  while(1){
    
	  Debug_Tx_Byte_Conf(7);
 152:	87 e0       	ldi	r24, 0x07	; 7
 154:	0e 94 8f 03 	call	0x71e	; 0x71e <Debug_Tx_Byte_Conf>
 158:	fc cf       	rjmp	.-8      	; 0x152 <Tasks_Task7+0x8>

0000015a <Tasks_Task6>:
  }
}

void Tasks_Task6(void){
  
  Debug_Init(0);
 15a:	80 e0       	ldi	r24, 0x00	; 0
 15c:	90 e0       	ldi	r25, 0x00	; 0
 15e:	0e 94 6e 03 	call	0x6dc	; 0x6dc <Debug_Init>
  uint16_t val = 200;
  
  while(1){
    
	  Debug_Tx_Byte_Conf(6);
 162:	86 e0       	ldi	r24, 0x06	; 6
 164:	0e 94 8f 03 	call	0x71e	; 0x71e <Debug_Tx_Byte_Conf>
 168:	fc cf       	rjmp	.-8      	; 0x162 <Tasks_Task6+0x8>

0000016a <Tasks_Task5>:
  }
}

void Tasks_Task5(void){
  
  Debug_Init(0);
 16a:	80 e0       	ldi	r24, 0x00	; 0
 16c:	90 e0       	ldi	r25, 0x00	; 0
 16e:	0e 94 6e 03 	call	0x6dc	; 0x6dc <Debug_Init>
  uint16_t val = 180;
  
  while(1){
    
    Debug_Tx_Byte_Conf(5);
 172:	85 e0       	ldi	r24, 0x05	; 5
 174:	0e 94 8f 03 	call	0x71e	; 0x71e <Debug_Tx_Byte_Conf>
 178:	fc cf       	rjmp	.-8      	; 0x172 <Tasks_Task5+0x8>

0000017a <Tasks_Task4>:
  }
}

void Tasks_Task4(void){
  
  Debug_Init(0);
 17a:	80 e0       	ldi	r24, 0x00	; 0
 17c:	90 e0       	ldi	r25, 0x00	; 0
 17e:	0e 94 6e 03 	call	0x6dc	; 0x6dc <Debug_Init>
  Kernel_Task_Sleep(1000);
 182:	88 ee       	ldi	r24, 0xE8	; 232
 184:	93 e0       	ldi	r25, 0x03	; 3
 186:	0e 94 38 03 	call	0x670	; 0x670 <Kernel_Task_Sleep>
  
  while(1){
    
	
	  Debug_Tx_Byte(4);
 18a:	84 e0       	ldi	r24, 0x04	; 4
 18c:	0e 94 7e 03 	call	0x6fc	; 0x6fc <Debug_Tx_Byte>
    Debug_Tx_Word(Kernel_Task_Sleep_Time_Get(5));
 190:	85 e0       	ldi	r24, 0x05	; 5
 192:	0e 94 4b 03 	call	0x696	; 0x696 <Kernel_Task_Sleep_Time_Get>
 196:	0e 94 87 03 	call	0x70e	; 0x70e <Debug_Tx_Word>
    Debug_Tx_Byte(0x20+Kernel_Task_Status_Get(5));
 19a:	85 e0       	ldi	r24, 0x05	; 5
 19c:	0e 94 55 03 	call	0x6aa	; 0x6aa <Kernel_Task_Status_Get>
 1a0:	80 5e       	subi	r24, 0xE0	; 224
 1a2:	0e 94 7e 03 	call	0x6fc	; 0x6fc <Debug_Tx_Byte>
    Debug_Tx_Byte(0x10+Kernel_High_Prio_Task_ID_Get());
 1a6:	0e 94 67 03 	call	0x6ce	; 0x6ce <Kernel_High_Prio_Task_ID_Get>
 1aa:	80 5f       	subi	r24, 0xF0	; 240
 1ac:	0e 94 7e 03 	call	0x6fc	; 0x6fc <Debug_Tx_Byte>
 1b0:	ec cf       	rjmp	.-40     	; 0x18a <Tasks_Task4+0x10>

000001b2 <Tasks_Task3>:
  }
}

void Tasks_Task3(void){
  
  Debug_Init(0);
 1b2:	80 e0       	ldi	r24, 0x00	; 0
 1b4:	90 e0       	ldi	r25, 0x00	; 0
 1b6:	0e 94 6e 03 	call	0x6dc	; 0x6dc <Debug_Init>
  Kernel_Task_Sleep(2000);
 1ba:	80 ed       	ldi	r24, 0xD0	; 208
 1bc:	97 e0       	ldi	r25, 0x07	; 7
 1be:	0e 94 38 03 	call	0x670	; 0x670 <Kernel_Task_Sleep>
  
  while(1){
    
	  Debug_Tx_Byte(3);
 1c2:	83 e0       	ldi	r24, 0x03	; 3
 1c4:	0e 94 7e 03 	call	0x6fc	; 0x6fc <Debug_Tx_Byte>
    Debug_Tx_Word(Kernel_Task_Sleep_Time_Get(4));
 1c8:	84 e0       	ldi	r24, 0x04	; 4
 1ca:	0e 94 4b 03 	call	0x696	; 0x696 <Kernel_Task_Sleep_Time_Get>
 1ce:	0e 94 87 03 	call	0x70e	; 0x70e <Debug_Tx_Word>
    Debug_Tx_Byte(0x20+Kernel_Task_Status_Get(4));
 1d2:	84 e0       	ldi	r24, 0x04	; 4
 1d4:	0e 94 55 03 	call	0x6aa	; 0x6aa <Kernel_Task_Status_Get>
 1d8:	80 5e       	subi	r24, 0xE0	; 224
 1da:	0e 94 7e 03 	call	0x6fc	; 0x6fc <Debug_Tx_Byte>
    Debug_Tx_Byte(0x10+Kernel_High_Prio_Task_ID_Get());
 1de:	0e 94 67 03 	call	0x6ce	; 0x6ce <Kernel_High_Prio_Task_ID_Get>
 1e2:	80 5f       	subi	r24, 0xF0	; 240
 1e4:	0e 94 7e 03 	call	0x6fc	; 0x6fc <Debug_Tx_Byte>
 1e8:	ec cf       	rjmp	.-40     	; 0x1c2 <Tasks_Task3+0x10>

000001ea <Tasks_Task2>:
    Debug_Tx_Byte(0x10+Kernel_High_Prio_Task_ID_Get());
	
  }
}

void Tasks_Task2(void){
 1ea:	1f 93       	push	r17
  
  DDRD |= (1<<6);
 1ec:	56 9a       	sbi	0x0a, 6	; 10

  Debug_Init(0);
 1ee:	80 e0       	ldi	r24, 0x00	; 0
 1f0:	90 e0       	ldi	r25, 0x00	; 0
 1f2:	0e 94 6e 03 	call	0x6dc	; 0x6dc <Debug_Init>
  Kernel_Task_Sleep(3000);
 1f6:	88 eb       	ldi	r24, 0xB8	; 184
 1f8:	9b e0       	ldi	r25, 0x0B	; 11
 1fa:	0e 94 38 03 	call	0x670	; 0x670 <Kernel_Task_Sleep>
  
  while(1){
    
    PORTD ^= (1<<6);
 1fe:	10 e4       	ldi	r17, 0x40	; 64
 200:	8b b1       	in	r24, 0x0b	; 11
 202:	81 27       	eor	r24, r17
 204:	8b b9       	out	0x0b, r24	; 11

	  Debug_Tx_Byte(2);
 206:	82 e0       	ldi	r24, 0x02	; 2
 208:	0e 94 7e 03 	call	0x6fc	; 0x6fc <Debug_Tx_Byte>
    Debug_Tx_Word(Kernel_Task_Sleep_Time_Get(3));
 20c:	83 e0       	ldi	r24, 0x03	; 3
 20e:	0e 94 4b 03 	call	0x696	; 0x696 <Kernel_Task_Sleep_Time_Get>
 212:	0e 94 87 03 	call	0x70e	; 0x70e <Debug_Tx_Word>
    Debug_Tx_Byte(0x20+Kernel_Task_Status_Get(3));
 216:	83 e0       	ldi	r24, 0x03	; 3
 218:	0e 94 55 03 	call	0x6aa	; 0x6aa <Kernel_Task_Status_Get>
 21c:	80 5e       	subi	r24, 0xE0	; 224
 21e:	0e 94 7e 03 	call	0x6fc	; 0x6fc <Debug_Tx_Byte>
    Debug_Tx_Byte(0x10+Kernel_High_Prio_Task_ID_Get());
 222:	0e 94 67 03 	call	0x6ce	; 0x6ce <Kernel_High_Prio_Task_ID_Get>
 226:	80 5f       	subi	r24, 0xF0	; 240
 228:	0e 94 7e 03 	call	0x6fc	; 0x6fc <Debug_Tx_Byte>
 22c:	e9 cf       	rjmp	.-46     	; 0x200 <Tasks_Task2+0x16>

0000022e <Tasks_Task1>:
    Debug_Tx_Byte(Kernel_NTask_Get());
    
  }
}

void Tasks_Task1(void){
 22e:	1f 93       	push	r17
  
  DDRD |= (1<<5);
 230:	55 9a       	sbi	0x0a, 5	; 10

  Debug_Init(0);
 232:	80 e0       	ldi	r24, 0x00	; 0
 234:	90 e0       	ldi	r25, 0x00	; 0
 236:	0e 94 6e 03 	call	0x6dc	; 0x6dc <Debug_Init>
  Kernel_Task_Sleep(4000);
 23a:	80 ea       	ldi	r24, 0xA0	; 160
 23c:	9f e0       	ldi	r25, 0x0F	; 15
 23e:	0e 94 38 03 	call	0x670	; 0x670 <Kernel_Task_Sleep>
  
  while(1){
    
    PORTD ^= (1<<5);
 242:	10 e2       	ldi	r17, 0x20	; 32
 244:	8b b1       	in	r24, 0x0b	; 11
 246:	81 27       	eor	r24, r17
 248:	8b b9       	out	0x0b, r24	; 11

	  Debug_Tx_Byte(1);
 24a:	81 e0       	ldi	r24, 0x01	; 1
 24c:	0e 94 7e 03 	call	0x6fc	; 0x6fc <Debug_Tx_Byte>
    Debug_Tx_Word(Kernel_Task_Sleep_Time_Get(2));
 250:	82 e0       	ldi	r24, 0x02	; 2
 252:	0e 94 4b 03 	call	0x696	; 0x696 <Kernel_Task_Sleep_Time_Get>
 256:	0e 94 87 03 	call	0x70e	; 0x70e <Debug_Tx_Word>
    Debug_Tx_Byte(0x20+Kernel_Task_Status_Get(2));
 25a:	82 e0       	ldi	r24, 0x02	; 2
 25c:	0e 94 55 03 	call	0x6aa	; 0x6aa <Kernel_Task_Status_Get>
 260:	80 5e       	subi	r24, 0xE0	; 224
 262:	0e 94 7e 03 	call	0x6fc	; 0x6fc <Debug_Tx_Byte>
    Debug_Tx_Byte(0x10+Kernel_High_Prio_Task_ID_Get());
 266:	0e 94 67 03 	call	0x6ce	; 0x6ce <Kernel_High_Prio_Task_ID_Get>
 26a:	80 5f       	subi	r24, 0xF0	; 240
 26c:	0e 94 7e 03 	call	0x6fc	; 0x6fc <Debug_Tx_Byte>
 270:	e9 cf       	rjmp	.-46     	; 0x244 <Tasks_Task1+0x16>

00000272 <Tasks_Task0>:
#include "tasks.h"
#include "debug.h"

void Tasks_Task0(void){
  
  Debug_Init(0);
 272:	80 e0       	ldi	r24, 0x00	; 0
 274:	90 e0       	ldi	r25, 0x00	; 0
 276:	0e 94 6e 03 	call	0x6dc	; 0x6dc <Debug_Init>
  Kernel_Task_Sleep(5000);
 27a:	88 e8       	ldi	r24, 0x88	; 136
 27c:	93 e1       	ldi	r25, 0x13	; 19
 27e:	0e 94 38 03 	call	0x670	; 0x670 <Kernel_Task_Sleep>
  
  while(1){
    
	  Debug_Tx_Byte(0);
 282:	80 e0       	ldi	r24, 0x00	; 0
 284:	0e 94 7e 03 	call	0x6fc	; 0x6fc <Debug_Tx_Byte>
    Debug_Tx_Word(Kernel_Task_Sleep_Time_Get(1));
 288:	81 e0       	ldi	r24, 0x01	; 1
 28a:	0e 94 4b 03 	call	0x696	; 0x696 <Kernel_Task_Sleep_Time_Get>
 28e:	0e 94 87 03 	call	0x70e	; 0x70e <Debug_Tx_Word>
    Debug_Tx_Byte(0x20+Kernel_Task_Status_Get(1));
 292:	81 e0       	ldi	r24, 0x01	; 1
 294:	0e 94 55 03 	call	0x6aa	; 0x6aa <Kernel_Task_Status_Get>
 298:	80 5e       	subi	r24, 0xE0	; 224
 29a:	0e 94 7e 03 	call	0x6fc	; 0x6fc <Debug_Tx_Byte>
    Debug_Tx_Byte(0x10+Kernel_High_Prio_Task_ID_Get());
 29e:	0e 94 67 03 	call	0x6ce	; 0x6ce <Kernel_High_Prio_Task_ID_Get>
 2a2:	80 5f       	subi	r24, 0xF0	; 240
 2a4:	0e 94 7e 03 	call	0x6fc	; 0x6fc <Debug_Tx_Byte>
    Debug_Tx_Byte(Kernel_NTask_Get());
 2a8:	0e 94 5d 03 	call	0x6ba	; 0x6ba <Kernel_NTask_Get>
 2ac:	0e 94 7e 03 	call	0x6fc	; 0x6fc <Debug_Tx_Byte>
 2b0:	e8 cf       	rjmp	.-48     	; 0x282 <Tasks_Task0+0x10>

000002b2 <__vector_16>:


;;=================================ISR execution starting===================================;; 
.global  __vector_16
    __vector_16:                                          ;total 26.13uS @8MHz    (211 clocks) 
	    KER_DEBUG_PIN_SET                                 ;debug pin set          (  2 clocks) 
 2b2:	29 9a       	sbi	0x05, 1	; 5
        KER_CONTEXT_SAVE                                  ;save context           ( 68 clocks) 
 2b4:	0f 92       	push	r0
 2b6:	0f b6       	in	r0, 0x3f	; 63
 2b8:	0f 92       	push	r0
 2ba:	1f 92       	push	r1
 2bc:	11 24       	eor	r1, r1
 2be:	2f 92       	push	r2
 2c0:	3f 92       	push	r3
 2c2:	4f 92       	push	r4
 2c4:	5f 92       	push	r5
 2c6:	6f 92       	push	r6
 2c8:	7f 92       	push	r7
 2ca:	8f 92       	push	r8
 2cc:	9f 92       	push	r9
 2ce:	af 92       	push	r10
 2d0:	bf 92       	push	r11
 2d2:	cf 92       	push	r12
 2d4:	df 92       	push	r13
 2d6:	ef 92       	push	r14
 2d8:	ff 92       	push	r15
 2da:	0f 93       	push	r16
 2dc:	1f 93       	push	r17
 2de:	2f 93       	push	r18
 2e0:	3f 93       	push	r19
 2e2:	4f 93       	push	r20
 2e4:	5f 93       	push	r21
 2e6:	6f 93       	push	r22
 2e8:	7f 93       	push	r23
 2ea:	8f 93       	push	r24
 2ec:	9f 93       	push	r25
 2ee:	af 93       	push	r26
 2f0:	bf 93       	push	r27
 2f2:	cf 93       	push	r28
 2f4:	df 93       	push	r29
 2f6:	ef 93       	push	r30
 2f8:	ff 93       	push	r31
		KER_SAVE_CURR_TASK_SP                             ;save current task SP   ( 14 clocks) 
 2fa:	0d b7       	in	r16, 0x3d	; 61
 2fc:	1e b7       	in	r17, 0x3e	; 62
 2fe:	20 91 07 01 	lds	r18, 0x0107
 302:	22 0f       	add	r18, r18
 304:	ea e0       	ldi	r30, 0x0A	; 10
 306:	f1 e0       	ldi	r31, 0x01	; 1
 308:	e2 0f       	add	r30, r18
 30a:	20 e0       	ldi	r18, 0x00	; 0
 30c:	f2 1f       	adc	r31, r18
 30e:	00 83       	st	Z, r16
 310:	11 83       	std	Z+1, r17	; 0x01

		KER_COUNTER_RELOAD                                ;counter reload         (  4 clocks) 
 312:	00 91 06 01 	lds	r16, 0x0106
 316:	00 93 46 00 	sts	0x0046, r16
		KER_TICK_INCREMENT                                ;increment tick counter ( 27 clocks) 
 31a:	00 91 00 01 	lds	r16, 0x0100
 31e:	10 91 01 01 	lds	r17, 0x0101
 322:	20 91 02 01 	lds	r18, 0x0102
 326:	30 91 03 01 	lds	r19, 0x0103
 32a:	40 91 04 01 	lds	r20, 0x0104
 32e:	51 e0       	ldi	r21, 0x01	; 1
 330:	05 0f       	add	r16, r21
 332:	50 e0       	ldi	r21, 0x00	; 0
 334:	15 1f       	adc	r17, r21
 336:	25 1f       	adc	r18, r21
 338:	35 1f       	adc	r19, r21
 33a:	45 1f       	adc	r20, r21
 33c:	00 93 00 01 	sts	0x0100, r16
 340:	10 93 01 01 	sts	0x0101, r17
 344:	20 93 02 01 	sts	0x0102, r18
 348:	30 93 03 01 	sts	0x0103, r19
 34c:	40 93 04 01 	sts	0x0104, r20
		
		KER_RUN_SCHEDULER                                 ;run scheduler          ( 14 clocks) 
 350:	40 e0       	ldi	r20, 0x00	; 0
 352:	50 91 08 01 	lds	r21, 0x0108
 356:	60 91 07 01 	lds	r22, 0x0107

0000035a <_LOOP5>:
 35a:	40 93 07 01 	sts	0x0107, r20
 35e:	00 91 07 01 	lds	r16, 0x0107
 362:	00 0f       	add	r16, r16
 364:	e0 e4       	ldi	r30, 0x40	; 64
 366:	f1 e0       	ldi	r31, 0x01	; 1
 368:	e0 0f       	add	r30, r16
 36a:	00 e0       	ldi	r16, 0x00	; 0
 36c:	f0 1f       	adc	r31, r16
 36e:	01 91       	ld	r16, Z+
 370:	10 81       	ld	r17, Z
 372:	20 2f       	mov	r18, r16
 374:	21 2b       	or	r18, r17
 376:	49 f0       	breq	.+18     	; 0x38a <_VAL_NULL6>
 378:	21 e0       	ldi	r18, 0x01	; 1
 37a:	02 1b       	sub	r16, r18
 37c:	20 e0       	ldi	r18, 0x00	; 0
 37e:	12 0b       	sbc	r17, r18
 380:	10 83       	st	Z, r17
 382:	02 93       	st	-Z, r16
 384:	20 2f       	mov	r18, r16
 386:	21 2b       	or	r18, r17
 388:	59 f4       	brne	.+22     	; 0x3a0 <_VAL_NOT_NULL6>

0000038a <_VAL_NULL6>:
 38a:	00 91 07 01 	lds	r16, 0x0107
 38e:	ec e2       	ldi	r30, 0x2C	; 44
 390:	f1 e0       	ldi	r31, 0x01	; 1
 392:	e0 0f       	add	r30, r16
 394:	00 e0       	ldi	r16, 0x00	; 0
 396:	f0 1f       	adc	r31, r16
 398:	01 e0       	ldi	r16, 0x01	; 1
 39a:	00 83       	st	Z, r16
 39c:	31 e0       	ldi	r19, 0x01	; 1
 39e:	01 c0       	rjmp	.+2      	; 0x3a2 <_EXIT_SLP_TIME6>

000003a0 <_VAL_NOT_NULL6>:
 3a0:	30 e0       	ldi	r19, 0x00	; 0

000003a2 <_EXIT_SLP_TIME6>:
 3a2:	43 95       	inc	r20
 3a4:	45 17       	cp	r20, r21
 3a6:	c8 f2       	brcs	.-78     	; 0x35a <_LOOP5>
 3a8:	60 93 07 01 	sts	0x0107, r22
		KER_LOAD_NEXT_TASK_ID                             ;load next task_id      ( 13 clocks)
 3ac:	00 91 07 01 	lds	r16, 0x0107
 3b0:	03 95       	inc	r16
 3b2:	10 91 08 01 	lds	r17, 0x0108

000003b6 <_MOD_CONT7>:
 3b6:	01 17       	cp	r16, r17
 3b8:	10 f0       	brcs	.+4      	; 0x3be <_MOD_DONE7>
 3ba:	01 1b       	sub	r16, r17
 3bc:	fc cf       	rjmp	.-8      	; 0x3b6 <_MOD_CONT7>

000003be <_MOD_DONE7>:
 3be:	00 93 07 01 	sts	0x0107, r16
	    
		KER_LOAD_TASK_ID_AND_SP                           ;load next task id, SP  ( 14 clocks) 
 3c2:	00 91 07 01 	lds	r16, 0x0107
 3c6:	00 0f       	add	r16, r16
 3c8:	ea e0       	ldi	r30, 0x0A	; 10
 3ca:	f1 e0       	ldi	r31, 0x01	; 1
 3cc:	e0 0f       	add	r30, r16
 3ce:	00 e0       	ldi	r16, 0x00	; 0
 3d0:	f0 1f       	adc	r31, r16
 3d2:	01 91       	ld	r16, Z+
 3d4:	10 81       	ld	r17, Z
 3d6:	0d bf       	out	0x3d, r16	; 61
 3d8:	1e bf       	out	0x3e, r17	; 62
		KER_CONTEXT_RESTORE                               ;restore context        ( 67 clocks) 
 3da:	ff 91       	pop	r31
 3dc:	ef 91       	pop	r30
 3de:	df 91       	pop	r29
 3e0:	cf 91       	pop	r28
 3e2:	bf 91       	pop	r27
 3e4:	af 91       	pop	r26
 3e6:	9f 91       	pop	r25
 3e8:	8f 91       	pop	r24
 3ea:	7f 91       	pop	r23
 3ec:	6f 91       	pop	r22
 3ee:	5f 91       	pop	r21
 3f0:	4f 91       	pop	r20
 3f2:	3f 91       	pop	r19
 3f4:	2f 91       	pop	r18
 3f6:	1f 91       	pop	r17
 3f8:	0f 91       	pop	r16
 3fa:	ff 90       	pop	r15
 3fc:	ef 90       	pop	r14
 3fe:	df 90       	pop	r13
 400:	cf 90       	pop	r12
 402:	bf 90       	pop	r11
 404:	af 90       	pop	r10
 406:	9f 90       	pop	r9
 408:	8f 90       	pop	r8
 40a:	7f 90       	pop	r7
 40c:	6f 90       	pop	r6
 40e:	5f 90       	pop	r5
 410:	4f 90       	pop	r4
 412:	3f 90       	pop	r3
 414:	2f 90       	pop	r2
 416:	1f 90       	pop	r1
 418:	0f 90       	pop	r0
 41a:	0f be       	out	0x3f, r0	; 63
 41c:	0f 90       	pop	r0

	    KER_DEBUG_PIN_CLEAR                               ;debug pin clear        (  2 clocks) 
 41e:	29 98       	cbi	0x05, 1	; 5
		RETI                                              ;return from interrupt  (  4 clocks) 
 420:	18 95       	reti

00000422 <Kernel_SysTick_Reg_Init>:


;;================================SysTick reg init starting=================================;; 
Kernel_SysTick_Reg_Init:                                  ;total 10.5uS @8MHz     ( 84 clocks) 
        ;arg1 -> prescaler R24, arg2 -> reload val R22
        CLI                                               ;disable global int     (  1 clock ) 
 422:	f8 94       	cli
		KER_DEBUG_PIN_INIT                                ;debug pin init         (  4 clocks) 
 424:	21 9a       	sbi	0x04, 1	; 4
 426:	29 98       	cbi	0x05, 1	; 5
		
        KER_PUSH_MSP_ZP                                   ;push MSP and ZP        ( 18 clocks) 
 428:	a0 91 1e 01 	lds	r26, 0x011E
 42c:	b0 91 1f 01 	lds	r27, 0x011F
 430:	0d b7       	in	r16, 0x3d	; 61
 432:	1e b7       	in	r17, 0x3e	; 62
 434:	0d 93       	st	X+, r16
 436:	1d 93       	st	X+, r17
 438:	ed 93       	st	X+, r30
 43a:	fd 93       	st	X+, r31
 43c:	a0 93 1e 01 	sts	0x011E, r26
 440:	b0 93 1f 01 	sts	0x011F, r27

		;clear reg
		LDI   R16                , 0x00                   ;set 0x00 to R16        (  1 clock )
 444:	00 e0       	ldi	r16, 0x00	; 0
        
		;clear tick counter
		STS   KerBase+OFB_TICK0  , R16                    ;clear  KerBase[0]      (  2 clocks) 
 446:	00 93 00 01 	sts	0x0100, r16
		STS   KerBase+OFB_TICK1  , R16                    ;clear  KerBase[1]      (  2 clocks) 
 44a:	00 93 01 01 	sts	0x0101, r16
		STS   KerBase+OFB_TICK2  , R16                    ;clear  KerBase[2]      (  2 clocks) 
 44e:	00 93 02 01 	sts	0x0102, r16
		STS   KerBase+OFB_TICK3  , R16                    ;clear  KerBase[3]      (  2 clocks) 
 452:	00 93 03 01 	sts	0x0103, r16
		STS   KerBase+OFB_TICK4  , R16                    ;clear  KerBase[4]      (  2 clocks) 
 456:	00 93 04 01 	sts	0x0104, r16
	    
		;clear system registers
		STS   KerBase+OFB_PRS    , R16                    ;clear  KerBase[5]      (  2 clocks) 
 45a:	00 93 05 01 	sts	0x0105, r16
		STS   KerBase+OFB_RLD    , R16                    ;clear  KerBase[6]      (  2 clocks) 
 45e:	00 93 06 01 	sts	0x0106, r16
		STS   KerBase+OFB_TID    , R16                    ;clear  KerBase[7]      (  2 clocks) 
 462:	00 93 07 01 	sts	0x0107, r16
		STS   KerBase+OFB_NTSK   , R16                    ;clear  KerBase[8]      (  2 clocks) 
 466:	00 93 08 01 	sts	0x0108, r16
        STS   KerBase+OFB_PTID   , R16                    ;clear  KerBase[9]      (  2 clocks) 
 46a:	00 93 09 01 	sts	0x0109, r16
		
		;clear all timer registers
		STS   SRTCCR0A           , R16                    ;clear TCCR0A           (  2 clocks) 
 46e:	00 93 44 00 	sts	0x0044, r16
		STS   SRTCCR0B           , R16                    ;clear TCCR0B           (  2 clocks) 
 472:	00 93 45 00 	sts	0x0045, r16
		STS   SRTIMSK0           , R16                    ;clear TIMSK0           (  2 clocks) 
 476:	00 93 6e 00 	sts	0x006E, r16
		STS   SRTIFR0            , R16                    ;clear TIFR0            (  2 clocks) 
 47a:	00 93 35 00 	sts	0x0035, r16
		STS   SROCR0A            , R16                    ;clear OCR0A            (  2 clocks) 
 47e:	00 93 47 00 	sts	0x0047, r16
		STS   SROCR0B            , R16                    ;clear OCR0B            (  2 clocks) 
 482:	00 93 48 00 	sts	0x0048, r16
		STS   SRTCNT0            , R16                    ;clear TCNT0            (  2 clocks) 
 486:	00 93 46 00 	sts	0x0046, r16
		
		STS   KerBase+OFB_PRS    , R24                    ;KerBase[5] prescaler   (  2 clocks) 
 48a:	80 93 05 01 	sts	0x0105, r24
		STS   KerBase+OFB_RLD    , R22                    ;KerBase[6] reload val  (  2 clocks) 
 48e:	60 93 06 01 	sts	0x0106, r22
		
        KER_POP_MSP_ZP                                    ;pop MSP and ZP         ( 18 clocks) 
 492:	a0 91 1e 01 	lds	r26, 0x011E
 496:	b0 91 1f 01 	lds	r27, 0x011F
 49a:	fe 91       	ld	r31, -X
 49c:	ee 91       	ld	r30, -X
 49e:	1e 91       	ld	r17, -X
 4a0:	0e 91       	ld	r16, -X
 4a2:	0d bf       	out	0x3d, r16	; 61
 4a4:	1e bf       	out	0x3e, r17	; 62
 4a6:	a0 93 1e 01 	sts	0x011E, r26
 4aa:	b0 93 1f 01 	sts	0x011F, r27

		RET                                               ;return from subroutine (  4 clocks) 
 4ae:	08 95       	ret

000004b0 <Kernel_Task_Create>:

;;===============================kernel task create starting================================;; 
Kernel_Task_Create:                                       ;total 19.86uS @8MHz    (162 clocks) 
        ;func_ptr->R25:R24, task_priority->R22 

        KER_PUSH_MSP_ZP                                   ;push MSP and ZP        ( 18 clocks) 
 4b0:	a0 91 1e 01 	lds	r26, 0x011E
 4b4:	b0 91 1f 01 	lds	r27, 0x011F
 4b8:	0d b7       	in	r16, 0x3d	; 61
 4ba:	1e b7       	in	r17, 0x3e	; 62
 4bc:	0d 93       	st	X+, r16
 4be:	1d 93       	st	X+, r17
 4c0:	ed 93       	st	X+, r30
 4c2:	fd 93       	st	X+, r31
 4c4:	a0 93 1e 01 	sts	0x011E, r26
 4c8:	b0 93 1f 01 	sts	0x011F, r27
		
		;across this function, R16 will be used as task_id 
		LDS   R16                , KerBase+OFB_TID        ;load task_id           (  2 clocks) 
 4cc:	00 91 07 01 	lds	r16, 0x0107
		LDI   R17                , 0x00                   ;clear reg              (  1 clock ) 
 4d0:	10 e0       	ldi	r17, 0x00	; 0
		
		;set priority to KerSchPr+task_id
		LDI   ZL                 , lo8(KerSchPr)          ;load low byte          (  1 clock ) 
 4d2:	e6 e3       	ldi	r30, 0x36	; 54
		LDI   ZH                 , hi8(KerSchPr)          ;load high byte         (  1 clock ) 
 4d4:	f1 e0       	ldi	r31, 0x01	; 1
		ADD   ZL                 , R16                    ;add low bytes          (  1 clock ) 
 4d6:	e0 0f       	add	r30, r16
		ADC   ZH                 , R17                    ;add high byte+carry    (  1 clock ) 
 4d8:	f1 1f       	adc	r31, r17
		ST    Z                  , R22                    ;save priority          (  2 clocks) 
 4da:	60 83       	st	Z, r22
		
		;stack pointer for current task (KerStack + KER_STK_SZ*(task_id+1) - 1) ->stack top    
		LDS   R16                , KerBase+OFB_TID        ;load task_id           (  2 clocks) 
 4dc:	00 91 07 01 	lds	r16, 0x0107
		MOV   R17                , R16                    ;load task_id           (  1 clock ) 
 4e0:	10 2f       	mov	r17, r16
		INC   R17                                         ;increment task_id      (  1 clock ) 
 4e2:	13 95       	inc	r17
		LDI   R18                , KER_STK_SZ             ;load stack size        (  1 clock ) 
 4e4:	20 e8       	ldi	r18, 0x80	; 128
		MUL   R17                , R18                    ;multiply to get offset (  2 clocks) 
 4e6:	12 9f       	mul	r17, r18
		MOV   ZL                 , R0                     ;load multiplied low    (  1 clocks) 
 4e8:	e0 2d       	mov	r30, r0
		MOV   ZH                 , R1                     ;load multiplied high   (  1 clocks) 
 4ea:	f1 2d       	mov	r31, r1
		SBIW  ZL                 , 0x01                   ;dec multiplied val-1   (  2 clocks) 
 4ec:	31 97       	sbiw	r30, 0x01	; 1
		CLR   R1                                          ;gcc expects cleared    (  1 clock ) 
 4ee:	11 24       	eor	r1, r1
		LDI   R17                , lo8(KerStack)          ;load base addr low     (  1 clock ) 
 4f0:	14 e5       	ldi	r17, 0x54	; 84
		LDI   R18                , hi8(KerStack)          ;load base addr high    (  1 clock ) 
 4f2:	21 e0       	ldi	r18, 0x01	; 1
		ADD   ZL                 , R17                    ;add low bytes          (  1 clock ) 
 4f4:	e1 0f       	add	r30, r17
		ADC   ZH                 , R18                    ;add high bytes+carry   (  1 clock ) 
 4f6:	f2 1f       	adc	r31, r18
		OUT   IOSPL              , ZL                     ;load SPL               (  1 clock ) 
 4f8:	ed bf       	out	0x3d, r30	; 61
        OUT   IOSPH              , ZH                     ;load SPH               (  1 clock ) 
 4fa:	fe bf       	out	0x3e, r31	; 62
		
		;function argument directly returns word address
	    PUSH  R24                                         ;push word addr low     (  2 clocks) 
 4fc:	8f 93       	push	r24
		PUSH  R25                                         ;push word addr high    (  2 clocks) 
 4fe:	9f 93       	push	r25
		
		;push context to stack of this task
		KER_CONTEXT_SAVE                                  ;save context           ( 68 clocks) 
 500:	0f 92       	push	r0
 502:	0f b6       	in	r0, 0x3f	; 63
 504:	0f 92       	push	r0
 506:	1f 92       	push	r1
 508:	11 24       	eor	r1, r1
 50a:	2f 92       	push	r2
 50c:	3f 92       	push	r3
 50e:	4f 92       	push	r4
 510:	5f 92       	push	r5
 512:	6f 92       	push	r6
 514:	7f 92       	push	r7
 516:	8f 92       	push	r8
 518:	9f 92       	push	r9
 51a:	af 92       	push	r10
 51c:	bf 92       	push	r11
 51e:	cf 92       	push	r12
 520:	df 92       	push	r13
 522:	ef 92       	push	r14
 524:	ff 92       	push	r15
 526:	0f 93       	push	r16
 528:	1f 93       	push	r17
 52a:	2f 93       	push	r18
 52c:	3f 93       	push	r19
 52e:	4f 93       	push	r20
 530:	5f 93       	push	r21
 532:	6f 93       	push	r22
 534:	7f 93       	push	r23
 536:	8f 93       	push	r24
 538:	9f 93       	push	r25
 53a:	af 93       	push	r26
 53c:	bf 93       	push	r27
 53e:	cf 93       	push	r28
 540:	df 93       	push	r29
 542:	ef 93       	push	r30
 544:	ff 93       	push	r31
		
		;read stack pointer of current task (necessary when restore)
		IN    R17                , IOSPL                  ;read SPL               (  1 clock ) 
 546:	1d b7       	in	r17, 0x3d	; 61
        IN    R18                , IOSPH                  ;read SPH               (  1 clock ) 
 548:	2e b7       	in	r18, 0x3e	; 62
		
		;calculate the address where current task's SP will be stored and store SP
		LDS   R16                , KerBase+OFB_TID        ;load task_id           (  2 clocks) 
 54a:	00 91 07 01 	lds	r16, 0x0107
		MOV   R19                , R16                    ;copy task_id           (  1 clock ) 
 54e:	30 2f       	mov	r19, r16
		LSL   R19                                         ;left shift to multiply (  1 clock ) 
 550:	33 0f       	add	r19, r19
		LDI   ZL                 , lo8(KerPSP)            ;fetch base pos low     (  1 clock ) 
 552:	ea e0       	ldi	r30, 0x0A	; 10
		LDI   ZH                 , hi8(KerPSP)            ;fetch base pos high    (  1 clock ) 
 554:	f1 e0       	ldi	r31, 0x01	; 1
		ADD   ZL                 , R19                    ;add offset to array    (  1 clock ) 
 556:	e3 0f       	add	r30, r19
		LDI   R16                , 0x00                   ;clear reg              (  1 clock ) 
 558:	00 e0       	ldi	r16, 0x00	; 0
		ADC   ZH                 , R16                    ;add carry if any       (  1 clock ) 
 55a:	f0 1f       	adc	r31, r16
		ST    Z+                 , R17                    ;SPL at KerPSp+offset   (  2 clocks) 
 55c:	11 93       	st	Z+, r17
		ST    Z                  , R18                    ;SPH at KerPSp+offset   (  2 clocks) 
 55e:	20 83       	st	Z, r18
		
		;increment task_id
		LDS   R16                , KerBase+OFB_TID        ;load task_id           (  2 clocks) 
 560:	00 91 07 01 	lds	r16, 0x0107
		INC   R16                                         ;increment task_id      (  1 clock ) 
 564:	03 95       	inc	r16
		STS   KerBase+OFB_TID    , R16                    ;store task_id          (  2 clocks) 
 566:	00 93 07 01 	sts	0x0107, r16

		;increment ntask
		LDS   R16                , KerBase+OFB_NTSK       ;load ntask             (  2 clocks) 
 56a:	00 91 08 01 	lds	r16, 0x0108
		INC   R16                                         ;increment ntask        (  1 clock ) 
 56e:	03 95       	inc	r16
		STS   KerBase+OFB_NTSK   , R16                    ;store ntask            (  2 clocks) 
 570:	00 93 08 01 	sts	0x0108, r16
		
		KER_POP_MSP_ZP                                    ;pop MSP and ZP         ( 18 clocks) 
 574:	a0 91 1e 01 	lds	r26, 0x011E
 578:	b0 91 1f 01 	lds	r27, 0x011F
 57c:	fe 91       	ld	r31, -X
 57e:	ee 91       	ld	r30, -X
 580:	1e 91       	ld	r17, -X
 582:	0e 91       	ld	r16, -X
 584:	0d bf       	out	0x3d, r16	; 61
 586:	1e bf       	out	0x3e, r17	; 62
 588:	a0 93 1e 01 	sts	0x011E, r26
 58c:	b0 93 1f 01 	sts	0x011F, r27
		
		RET                                               ;return from subroutine (  4 clocks) 
 590:	08 95       	ret

00000592 <Kernel_Start_Tasks>:
		;save ZP
		;MOV   R4                 , ZL                     ;save ZPL               (  2 clocks) 
		;MOV   R5                 , ZH                     ;save ZPH               (  2 clocks) 
		
		;clear task_id
		LDI   R16                , 0x00                   ;load task_id           (  2 clocks) 
 592:	00 e0       	ldi	r16, 0x00	; 0
		STS   KerBase+OFB_TID    , R16                    ;store task_id          (  2 clocks) 
 594:	00 93 07 01 	sts	0x0107, r16
		
		;load ZP with addr+offset
		LDI   ZL                 , lo8(KerPSP+0x00)       ;fetch ZPL KerPSP->TID0 (  1 clock ) 
 598:	ea e0       	ldi	r30, 0x0A	; 10
		LDI   ZH                 , hi8(KerPSP+0x00)       ;fetch ZPH KerPSP->TID0 (  1 clock ) 
 59a:	f1 e0       	ldi	r31, 0x01	; 1
		
		;load task_id 0 task's SP
		LD    R16                , Z+                     ;load val from Z, inc Z (  2 clocks) 
 59c:	01 91       	ld	r16, Z+
		LD    R17                , Z                      ;load val from Z+1      (  2 clocks) 
 59e:	10 81       	ld	r17, Z
		
        ;set task_id=0 task's SP
		OUT   IOSPL              , R16                    ;load SPL               (  1 clock ) 
 5a0:	0d bf       	out	0x3d, r16	; 61
        OUT   IOSPH              , R17                    ;load SPH               (  1 clock ) 
 5a2:	1e bf       	out	0x3e, r17	; 62
        
        ;forcefully restore context, in ISR it will be stored automatically
		KER_CONTEXT_RESTORE                               ;restore context        ( 67 clocks) 
 5a4:	ff 91       	pop	r31
 5a6:	ef 91       	pop	r30
 5a8:	df 91       	pop	r29
 5aa:	cf 91       	pop	r28
 5ac:	bf 91       	pop	r27
 5ae:	af 91       	pop	r26
 5b0:	9f 91       	pop	r25
 5b2:	8f 91       	pop	r24
 5b4:	7f 91       	pop	r23
 5b6:	6f 91       	pop	r22
 5b8:	5f 91       	pop	r21
 5ba:	4f 91       	pop	r20
 5bc:	3f 91       	pop	r19
 5be:	2f 91       	pop	r18
 5c0:	1f 91       	pop	r17
 5c2:	0f 91       	pop	r16
 5c4:	ff 90       	pop	r15
 5c6:	ef 90       	pop	r14
 5c8:	df 90       	pop	r13
 5ca:	cf 90       	pop	r12
 5cc:	bf 90       	pop	r11
 5ce:	af 90       	pop	r10
 5d0:	9f 90       	pop	r9
 5d2:	8f 90       	pop	r8
 5d4:	7f 90       	pop	r7
 5d6:	6f 90       	pop	r6
 5d8:	5f 90       	pop	r5
 5da:	4f 90       	pop	r4
 5dc:	3f 90       	pop	r3
 5de:	2f 90       	pop	r2
 5e0:	1f 90       	pop	r1
 5e2:	0f 90       	pop	r0
 5e4:	0f be       	out	0x3f, r0	; 63
 5e6:	0f 90       	pop	r0
		;restore ZP
		;MOV   ZL                 , R4                     ;restore ZPL            (  2 clocks) 
		;MOV   ZH                 , R5                     ;restore ZPL            (  2 clocks) 
		
		;config timer for system tick
		KER_TIMER_INIT                                    ;init timer, int enable ( 12 clocks) 
 5e8:	00 91 05 01 	lds	r16, 0x0105
 5ec:	10 91 06 01 	lds	r17, 0x0106
 5f0:	00 93 45 00 	sts	0x0045, r16
 5f4:	10 93 46 00 	sts	0x0046, r17
 5f8:	01 e0       	ldi	r16, 0x01	; 1
 5fa:	00 93 6e 00 	sts	0x006E, r16
 5fe:	78 94       	sei
        
		;execute return to jump to task0, pushed while task init
		RET                                               ;return from subroutine (  4 clocks) 
 600:	08 95       	ret

00000602 <Kernel_Init>:


;;===================================kernel init starting===================================;; 
Kernel_Init:                                              ;total 37.00uS @8MHz    (296 clocks) 
		;save necessary registers and MSP
		CLR   R1                                          ;gcc expects            (  1 clock ) 
 602:	11 24       	eor	r1, r1

        ;store stack top (for MSP) addr to KerSSZ+OFM_MSPI0:1
		LDI   R16                , lo8(KerSSZ+OFM_MSPS)   ;load low address       (  1 clock ) 
 604:	00 e2       	ldi	r16, 0x20	; 32
		LDI   R17                , hi8(KerSSZ+OFM_MSPS)   ;load high address      (  1 clock )
 606:	11 e0       	ldi	r17, 0x01	; 1
        STS   KerSSZ+OFM_MSPI+0  , R16                    ;set mspi to stack top  (  2 clocks) 
 608:	00 93 1e 01 	sts	0x011E, r16
		STS   KerSSZ+OFM_MSPI+1  , R17                    ;set mspi to stack top  (  2 clocks) 
 60c:	10 93 1f 01 	sts	0x011F, r17
        
		KER_PUSH_MSP_ZP                                   ;push MSP and ZP        ( 18 clocks) 
 610:	a0 91 1e 01 	lds	r26, 0x011E
 614:	b0 91 1f 01 	lds	r27, 0x011F
 618:	0d b7       	in	r16, 0x3d	; 61
 61a:	1e b7       	in	r17, 0x3e	; 62
 61c:	0d 93       	st	X+, r16
 61e:	1d 93       	st	X+, r17
 620:	ed 93       	st	X+, r30
 622:	fd 93       	st	X+, r31
 624:	a0 93 1e 01 	sts	0x011E, r26
 628:	b0 93 1f 01 	sts	0x011F, r27

		;init timer for kernel 
		LDI   R24                , 0x03                   ;set prescaler          (  1 clock ) 
 62c:	83 e0       	ldi	r24, 0x03	; 3
		LDI   R22                , 0x82                   ;set reload val         (  1 clock ) 
 62e:	62 e8       	ldi	r22, 0x82	; 130
		CALL  Kernel_SysTick_Reg_Init                     ;init timer             ( 84 clocks) 
 630:	0e 94 11 02 	call	0x422	; 0x422 <Kernel_SysTick_Reg_Init>
		
		;create idle task at task_id 0, priority 0xFF (lowest)
		LDI   R24                , lo8(Kernel_Task_Idle)  ;load func addr low     (  1 clock ) 
 634:	80 e6       	ldi	r24, 0x60	; 96
		LDI   R25                , hi8(Kernel_Task_Idle)  ;load func addr high    (  1 clock ) 
 636:	96 e0       	ldi	r25, 0x06	; 6
		LSR   R25                                         ;right shift to divide  (  1 clock ) 
 638:	96 95       	lsr	r25
		ROR   R24                                         ;rotate right th carry  (  1 clock ) 
 63a:	87 95       	ror	r24
		LDI   R22                , 0xFF                   ;set max val
 63c:	6f ef       	ldi	r22, 0xFF	; 255
		CALL  Kernel_Task_Create                          ;init idle task         (159 clocks) 
 63e:	0e 94 58 02 	call	0x4b0	; 0x4b0 <Kernel_Task_Create>
		
		KER_POP_MSP_ZP                                    ;pop MSP and ZP         ( 18 clocks) 
 642:	a0 91 1e 01 	lds	r26, 0x011E
 646:	b0 91 1f 01 	lds	r27, 0x011F
 64a:	fe 91       	ld	r31, -X
 64c:	ee 91       	ld	r30, -X
 64e:	1e 91       	ld	r17, -X
 650:	0e 91       	ld	r16, -X
 652:	0d bf       	out	0x3d, r16	; 61
 654:	1e bf       	out	0x3e, r17	; 62
 656:	a0 93 1e 01 	sts	0x011E, r26
 65a:	b0 93 1f 01 	sts	0x011F, r27

		;execute return to jump to task0, pushed while task init
		RET                                               ;return from subroutine (  4 clocks) 
 65e:	08 95       	ret

00000660 <Kernel_Task_Idle>:



;;=================================kernel idle task starting================================;; 
Kernel_Task_Idle:                                         ;total 0.5uS @8MHz      (  4 clocks) 
        LDI   R25                , 0x00                   ;set UBRRH              (  1 clock ) 
 660:	90 e0       	ldi	r25, 0x00	; 0
        LDI   R24                , 0x00                   ;set UBRRL              (  1 clock ) 
 662:	80 e0       	ldi	r24, 0x00	; 0
        CALL  Debug_Init                                  ;debug init
 664:	0e 94 6e 03 	call	0x6dc	; 0x6dc <Debug_Init>

00000668 <_IDLE_LOOP>:
    _IDLE_LOOP:                                           ;forever loop
	    LDI   R24                , 0x23
 668:	83 e2       	ldi	r24, 0x23	; 35
		CALL  Debug_Tx_Byte      
 66a:	0e 94 7e 03 	call	0x6fc	; 0x6fc <Debug_Tx_Byte>
		RJMP  _IDLE_LOOP                                  ;return from subroutine (  4 clocks) 
 66e:	fc cf       	rjmp	.-8      	; 0x668 <_IDLE_LOOP>

00000670 <Kernel_Task_Sleep>:
        ;save current context
        ;KER_CONTEXT_SAVE_YEILD                            ;save context           ( 68 clocks) 
		;KER_SAVE_CURR_TASK_SP                             ;save current task SP   ( 14 clocks)
		;CLI
		;create next task wakeup time (args R25:R24)
		LDS   R16                , KerBase+OFB_TID        ;load tak_id            (  2 clocks) 
 670:	00 91 07 01 	lds	r16, 0x0107
		MOV   R17                , R16                    ;copy                   (  1 clock ) 
 674:	10 2f       	mov	r17, r16
		LSL   R17                                         ;x2                     (  1 clock ) 
 676:	11 0f       	add	r17, r17
		LDI   ZL                 , lo8(KerSchSlp)         ;load low byte          (  1 clock ) 
 678:	e0 e4       	ldi	r30, 0x40	; 64
		LDI   ZH                 , hi8(KerSchSlp)         ;load high byte         (  1 clock ) 
 67a:	f1 e0       	ldi	r31, 0x01	; 1
		ADD   ZL                 , R17                    ;add low bytes          (  1 clock ) 
 67c:	e1 0f       	add	r30, r17
		LDI   R17                , 0x00                   ;load 0                 (  1 clock ) 
 67e:	10 e0       	ldi	r17, 0x00	; 0
		ADC   ZH                 , R17                    ;add high byte+carry    (  1 clock ) 
 680:	f1 1f       	adc	r31, r17
		ST    Z+                 , R24                    ;save sleep time        (  2 clocks) 
 682:	81 93       	st	Z+, r24
		ST    Z                  , R25                    ;save sleep time        (  2 clocks) 
 684:	90 83       	st	Z, r25
		
		;update task scheduler status as blocked
		LDI   ZL                 , lo8(KerSchSts)         ;load low byte          (  1 clock ) 
 686:	ec e2       	ldi	r30, 0x2C	; 44
		LDI   ZH                 , hi8(KerSchSts)         ;load high byte         (  1 clock ) 
 688:	f1 e0       	ldi	r31, 0x01	; 1
		ADD   ZL                 , R16                    ;add low bytes          (  1 clock ) 
 68a:	e0 0f       	add	r30, r16
		LDI   R16                , 0x00                   ;load 0                 (  1 clock ) 
 68c:	00 e0       	ldi	r16, 0x00	; 0
		ADC   ZH                 , R16                    ;add high byte+carry    (  1 clock ) 
 68e:	f0 1f       	adc	r31, r16
        LDI   R16                , TASK_BLOCK             ;block task until cnt=0 (  1 clock ) 
 690:	00 e0       	ldi	r16, 0x00	; 0
		ST    Z                  , R16                    ;save block flag        (  2 clocks) 
 692:	00 83       	st	Z, r16
		;KER_RUN_SCHEDULER                                 ;run scheduler          ( 14 clocks)
		;KER_DEC_SLP_TIMEOUT_SLEEP 
		;KER_LOAD_TASK_ID_AND_SP                           ;load next task id, SP  ( 14 clocks) 
		;KER_CONTEXT_RESTORE_YEILD                         ;restore context        ( 67 clocks) 
		
		RET                                               ;return from subroutine (  4 clocks) 
 694:	08 95       	ret

00000696 <Kernel_Task_Sleep_Time_Get>:


;;===========================kernel task sleep time get starting============================;; 
Kernel_Task_Sleep_Time_Get:
		;get remaining sleep time (ms), arg R24, return R25:R24
		MOV   R16                , R24                    ;copy                   (  1 clock ) 
 696:	08 2f       	mov	r16, r24
		LSL   R16                                         ;x2                     (  1 clock ) 
 698:	00 0f       	add	r16, r16
		LDI   R30                , lo8(KerSchSlp)         ;load low byte          (  1 clock ) 
 69a:	e0 e4       	ldi	r30, 0x40	; 64
		LDI   R31                , hi8(KerSchSlp)         ;load high byte         (  1 clock ) 
 69c:	f1 e0       	ldi	r31, 0x01	; 1
		ADD   R30                , R16                    ;add low bytes          (  1 clock ) 
 69e:	e0 0f       	add	r30, r16
		LDI   R16                , 0x00                   ;load 0                 (  1 clock ) 
 6a0:	00 e0       	ldi	r16, 0x00	; 0
		ADC   R31                , R16                    ;add high byte+carry    (  1 clock ) 
 6a2:	f0 1f       	adc	r31, r16
		LD    R24                , Z+                     ;load sleep time        (  2 clocks) 
 6a4:	81 91       	ld	r24, Z+
		LD    R25                , Z                      ;load sleep time        (  2 clocks) 
 6a6:	90 81       	ld	r25, Z
		RET                                               ;return from subroutine (  4 clocks) 
 6a8:	08 95       	ret

000006aa <Kernel_Task_Status_Get>:


;;==============================kernel task status get starting=============================;; 
Kernel_Task_Status_Get:
		;get task status ->ready/blocked, arg R24, return R24
		MOV   R16                , R24                    ;copy                   (  1 clock ) 
 6aa:	08 2f       	mov	r16, r24
		LDI   R30                , lo8(KerSchSts)         ;load low byte          (  1 clock ) 
 6ac:	ec e2       	ldi	r30, 0x2C	; 44
		LDI   R31                , hi8(KerSchSts)         ;load high byte         (  1 clock ) 
 6ae:	f1 e0       	ldi	r31, 0x01	; 1
		ADD   R30                , R16                    ;add low bytes          (  1 clock ) 
 6b0:	e0 0f       	add	r30, r16
		LDI   R16                , 0x00                   ;load 0                 (  1 clock ) 
 6b2:	00 e0       	ldi	r16, 0x00	; 0
		ADC   R31                , R16                    ;add high byte+carry    (  1 clock ) 
 6b4:	f0 1f       	adc	r31, r16
		LD    R24                , Z                      ;load task status       (  2 clocks) 
 6b6:	80 81       	ld	r24, Z
		RET                                               ;return from subroutine (  4 clocks) 
 6b8:	08 95       	ret

000006ba <Kernel_NTask_Get>:



;;================================kernel ntask get starting=================================;; 
Kernel_NTask_Get:                                         ;total 0.75uS @8MHz     (  6 clocks) 
		LDS   R24                 , KerBase+OFB_NTSK      ;load ntask             (  2 clock ) 
 6ba:	80 91 08 01 	lds	r24, 0x0108
		RET                                               ;return from subroutine (  4 clocks) 
 6be:	08 95       	ret

000006c0 <Kernel_Task_Prio_Get>:


;;=============================kernel task priority get starting============================;; 
Kernel_Task_Prio_Get:                                     ;total 1.38uS @8MHz     ( 11 clocks) 
		;get priority of the task id, arg (task_id->R24), return R24
		MOV   R16                , R24                    ;copy task_id           (  1 clock ) 
 6c0:	08 2f       	mov	r16, r24
		LDI   ZL                 , lo8(KerSchPr)          ;load low byte          (  1 clock ) 
 6c2:	e6 e3       	ldi	r30, 0x36	; 54
		LDI   ZH                 , hi8(KerSchPr)          ;load high byte         (  1 clock ) 
 6c4:	f1 e0       	ldi	r31, 0x01	; 1
		ADD   ZL                 , R16                    ;add low bytes          (  1 clock ) 
 6c6:	e0 0f       	add	r30, r16
		ADC   ZH                 , R1                     ;add high byte+carry    (  1 clock ) 
 6c8:	f1 1d       	adc	r31, r1
		LD    R24                , Z                      ;load priority          (  2 clocks) 
 6ca:	80 81       	ld	r24, Z
		RET                                               ;return from subroutine (  4 clocks) 
 6cc:	08 95       	ret

000006ce <Kernel_High_Prio_Task_ID_Get>:


;;===========================kernel high priority task id starting==========================;; 
Kernel_High_Prio_Task_ID_Get:
		;internal idle task id = 0, app task start from task id 1, return R24
		LDS   R24                , KerBase+OFB_PTID       ;load priority tak_id   (  2 clocks) 
 6ce:	80 91 09 01 	lds	r24, 0x0109
		DEC   R24                                         ;decrement by 1         (  1 clock ) 
 6d2:	8a 95       	dec	r24
		RET                                               ;return from subroutine (  4 clocks) 
 6d4:	08 95       	ret

000006d6 <Kernel_Abs_High_Prio_Task_ID_Get>:


;;=========================kernel abs high priority task id starting========================;; 
Kernel_Abs_High_Prio_Task_ID_Get:
		;get highest priority task id, return R24
		LDS   R24                , KerBase+OFB_PTID       ;load priority tak_id   (  2 clocks) 
 6d6:	80 91 09 01 	lds	r24, 0x0109
		RET                                               ;return from subroutine (  4 clocks) 
 6da:	08 95       	ret

000006dc <Debug_Init>:


;;===================================debug init starting====================================;;
Debug_Init:                                               ;total 2.38uS @8MHz     ( 19 clocks) 
        ;init registers for UART0 (Arg R25:R24->UBRRH:UBRRL)
		LDI   R16                , (1<<1)                 ;mask U2x               (  1 clock )
 6dc:	02 e0       	ldi	r16, 0x02	; 2
		STS   SRUCSR0A           , R16                    ;load val to UCSR0A     (  2 clocks)
 6de:	00 93 c0 00 	sts	0x00C0, r16
		MOV   R16                , R25                    ;copy R25->baud rate H  (  1 clock )
 6e2:	09 2f       	mov	r16, r25
		STS   SRUBRR0H           , R16                    ;load val to UBRR0H     (  2 clocks)
 6e4:	00 93 c5 00 	sts	0x00C5, r16
		MOV   R16                , R24                    ;copy R24->baud rate L  (  1 clock )
 6e8:	08 2f       	mov	r16, r24
		STS   SRUBRR0L           , R16                    ;load val to UBRR0L     (  2 clocks)
 6ea:	00 93 c4 00 	sts	0x00C4, r16
		LDI   R16                , (1<<1)|(1<<2)          ;config 8 data bit      (  1 clock )
 6ee:	06 e0       	ldi	r16, 0x06	; 6
		STS   SRUCSR0C           , R16                    ;load val to UCSR0C     (  2 clocks)
 6f0:	00 93 c2 00 	sts	0x00C2, r16
		LDI   R16                , (1<<3)                 ;enable tx              (  1 clock )
 6f4:	08 e0       	ldi	r16, 0x08	; 8
		STS   SRUCSR0B           , R16                    ;load val to UCSR0B     (  2 clocks)
 6f6:	00 93 c1 00 	sts	0x00C1, r16
        RET                                               ;return from subroutine (  4 clocks) 
 6fa:	08 95       	ret

000006fc <Debug_Tx_Byte>:


;;====================================debug tx starting=====================================;; 
Debug_Tx_Byte:                                            ;total 2.00uS+LT @8MHz  ( 16 clocks) 
		;write single byte to data register (Arg R24)                                          
		PUSH  R16                                         ;save reg               (  2 clocks) 
 6fc:	0f 93       	push	r16
		STS   SRUDR0             , R24                    ;load val to UDR0       (  2 clocks) 
 6fe:	80 93 c6 00 	sts	0x00C6, r24

00000702 <__UDRE0_CLEARED>:
                                                                                               
    __UDRE0_CLEARED:                                      ;undefined loop wrt ck               
		LDS   R16                , SRUCSR0A               ;load UCSR0A to R16     (  2 clocks) 
 702:	00 91 c0 00 	lds	r16, 0x00C0
		SBRS  R16                , 0x05                   ;skip if UDRE0 is set   (  2 clocks) 
 706:	05 ff       	sbrs	r16, 5
		RJMP  __UDRE0_CLEARED                             ;wait until UDRE0 is set(  2 clocks) 
 708:	fc cf       	rjmp	.-8      	; 0x702 <__UDRE0_CLEARED>
		POP   R16                                         ;restore reg            (  2 clocks) 
 70a:	0f 91       	pop	r16
        RET                                               ;return from subroutine (  4 clocks) 
 70c:	08 95       	ret

0000070e <Debug_Tx_Word>:


;;==================================debug tx word starting==================================;; 
Debug_Tx_Word:                                            ;total 2.00uS+LT @8MHz  ( 16 clocks) 
		;write 2 bytes, (Arg R24, R25), Args retained                                          
		PUSH  R24                                         ;save reg               (  2 clocks) 
 70e:	8f 93       	push	r24
		MOV   R24                , R25                    ;copy reg               (  1 clock ) 
 710:	89 2f       	mov	r24, r25
		CALL  Debug_Tx_Byte                               ;send via uart          ( 21 clocks) 
 712:	0e 94 7e 03 	call	0x6fc	; 0x6fc <Debug_Tx_Byte>
        POP   R24                                         ;restore reg            (  2 clocks) 
 716:	8f 91       	pop	r24
		CALL  Debug_Tx_Byte                               ;send via uart          ( 21 clocks) 
 718:	0e 94 7e 03 	call	0x6fc	; 0x6fc <Debug_Tx_Byte>
        RET                                               ;return from subroutine (  4 clocks) 
 71c:	08 95       	ret

0000071e <Debug_Tx_Byte_Conf>:


;;================================debug tx confirm starting=================================;;
Debug_Tx_Byte_Conf:                                       ;total 2.63uS+LT @8MHz  ( 21 clocks)
        ;write 1 byte, (Arg R24), Args retained
		PUSH  R16                                         ;save reg               (  2 clocks)
 71e:	0f 93       	push	r16
		STS   SRUDR0             , R24                    ;load val to UDR0,      (  2 clocks)
 720:	80 93 c6 00 	sts	0x00C6, r24

00000724 <__TXC0_CLEARED>:
		
    __TXC0_CLEARED:
		LDS   R16                , SRUCSR0A               ;load UCSR0A to R16,    (  2 clocks)
 724:	00 91 c0 00 	lds	r16, 0x00C0
		SBRS  R16                , 0x06                   ;skip if TXC0 is set,   (  2 clocks)
 728:	06 ff       	sbrs	r16, 6
		RJMP  __TXC0_CLEARED                              ;wait until TXC0 is set (  2 clocks)
 72a:	fc cf       	rjmp	.-8      	; 0x724 <__TXC0_CLEARED>
		LDS   R16                , SRUCSR0A               ;load UCSR0A to R16,    (  2 clocks)
 72c:	00 91 c0 00 	lds	r16, 0x00C0
		ORI   R16                , (1<<6)                 ;mask bit 6,            (  1 clock )
 730:	00 64       	ori	r16, 0x40	; 64
		STS   SRUCSR0A           , R16                    ;write reg with bit msk (  2 clocks)
 732:	00 93 c0 00 	sts	0x00C0, r16
		POP   R16                                         ;restore reg            (  2 clocks)
 736:	0f 91       	pop	r16
        RET                                               ;return from subroutine (  4 clocks) 
 738:	08 95       	ret

0000073a <Debug_Tx_Word_Conf>:


;;==============================debug tx word confirm starting==============================;;
Debug_Tx_Word_Conf:                                       ;total 6.38uS+LT @8MHz  ( 51 clocks)
        ;write 2 bytes, (Arg R24, R25), Args retained
		CALL  Debug_Tx_Byte_Conf                          ;send via uart
 73a:	0e 94 8f 03 	call	0x71e	; 0x71e <Debug_Tx_Byte_Conf>
		PUSH  R24                                         ;save reg               (  2 clocks)
 73e:	8f 93       	push	r24
		MOV   R24                , R25                    ;copy R25 to R24        (  1 clock )
 740:	89 2f       	mov	r24, r25
		CALL  Debug_Tx_Byte_Conf                          ;send via uart
 742:	0e 94 8f 03 	call	0x71e	; 0x71e <Debug_Tx_Byte_Conf>
		POP   R24                                         ;restore reg            (  2 clocks)
 746:	8f 91       	pop	r24
        RET                                               ;return from subroutine (  4 clocks) 
 748:	08 95       	ret

0000074a <Debug_Tx_DWord_Conf>:


;;==============================debug tx dword confirm starting=============================;; 
Debug_Tx_DWord_Conf:                                      ;total 12.38uS+LT @8MHz ( 99 clocks) 
        ;write 4 bytes, (Arg R22-R25), Args retained
		STS   SRGPIOR1           , R24                    ;store R24 val,           (2 clocks)
 74a:	80 93 4a 00 	sts	0x004A, r24
		MOV   R24                , R22                    ;copy R22 to R24          (1 clock )
 74e:	86 2f       	mov	r24, r22
		CALL  Debug_Tx_Byte_Conf                          ;send via uart
 750:	0e 94 8f 03 	call	0x71e	; 0x71e <Debug_Tx_Byte_Conf>
		MOV   R24                , R23                    ;copy R23 to R24          (1 clock )
 754:	87 2f       	mov	r24, r23
		CALL  Debug_Tx_Byte_Conf                          ;send via uart
 756:	0e 94 8f 03 	call	0x71e	; 0x71e <Debug_Tx_Byte_Conf>
		LDS   R24                , SRGPIOR1               ;restore R24              (2 clocks)
 75a:	80 91 4a 00 	lds	r24, 0x004A
		CALL  Debug_Tx_Byte_Conf                          ;send via uart
 75e:	0e 94 8f 03 	call	0x71e	; 0x71e <Debug_Tx_Byte_Conf>
		STS   SRGPIOR1           , R24                    ;store R24 val,           (2 clocks)
 762:	80 93 4a 00 	sts	0x004A, r24
		MOV   R24                , R25                    ;copy R22 to R24          (1 clock )
 766:	89 2f       	mov	r24, r25
		CALL  Debug_Tx_Byte_Conf                          ;send via uart
 768:	0e 94 8f 03 	call	0x71e	; 0x71e <Debug_Tx_Byte_Conf>
		LDS   R24                , SRGPIOR1               ;restore R24 val,         (2 clocks)
 76c:	80 91 4a 00 	lds	r24, 0x004A
        RET                                               ;return from subroutine,  (4 clocks) 
 770:	08 95       	ret

00000772 <Debug_Tx_From_RAM>:


;;=============================debug tx confirm from ram starting===========================;; 
Debug_Tx_From_RAM:                                        ;total 4.38uS+LT @8MHz  ( 35 clocks) 
        ;print data from RAM address (Arg R24-R25)
		MOV   R16                , R30                    ;copy R30 to R16          (1 clock )
 772:	0e 2f       	mov	r16, r30
		MOV   R17                , R31                    ;copy R31 to R17          (1 clock )
 774:	1f 2f       	mov	r17, r31
		MOV   R18                , R24                    ;copy R24 to R18          (1 clock )
 776:	28 2f       	mov	r18, r24
		MOV   R30                , R24                    ;copy R22 to R24          (1 clock )
 778:	e8 2f       	mov	r30, r24
		MOV   R31                , R25                    ;copy R22 to R24          (1 clock )
 77a:	f9 2f       	mov	r31, r25
		LD    R24                , Z                      ;load val to R24          (2 clocks)
 77c:	80 81       	ld	r24, Z
		CALL  Debug_Tx_Byte_Conf                          ;send via uart
 77e:	0e 94 8f 03 	call	0x71e	; 0x71e <Debug_Tx_Byte_Conf>
		MOV   R30                , R16                    ;copy R16 to R30          (1 clock )
 782:	e0 2f       	mov	r30, r16
		MOV   R31                , R17                    ;copy R17 to R31          (1 clock )
 784:	f1 2f       	mov	r31, r17
		MOV   R24                , R18                    ;copy R18 to R24          (1 clock )
 786:	82 2f       	mov	r24, r18
        RET                                               ;return from subroutine,  (4 clocks) 
 788:	08 95       	ret

0000078a <Debug_Tx_RAM_Area>:

;;=============================debug tx confirm ram area starting===========================;; 
Debug_Tx_RAM_Area:                                        ;5.5uS+LT x R22 @8MHz  ( 44 clocks) 
        ;print data from RAM address (arguments R24:R25, R22)
	__DUMP_BYTES:
	    CALL  Debug_Tx_From_RAM                           ;send via uart from ram
 78a:	0e 94 b9 03 	call	0x772	; 0x772 <Debug_Tx_From_RAM>
		SUBI  R24                , 0x01                   ;decrement from LSByte
 78e:	81 50       	subi	r24, 0x01	; 1
        SBCI  R25                , 0x00                   ;decrement if carry
 790:	90 40       	sbci	r25, 0x00	; 0
		SUBI  R22                , 0x01                   ;decrement
 792:	61 50       	subi	r22, 0x01	; 1
		BRNE  __DUMP_BYTES
 794:	d1 f7       	brne	.-12     	; 0x78a <Debug_Tx_RAM_Area>
        RET                                               ;return from subroutine,  (4 clocks) 
 796:	08 95       	ret

00000798 <_exit>:
 798:	f8 94       	cli

0000079a <__stop_program>:
 79a:	ff cf       	rjmp	.-2      	; 0x79a <__stop_program>
