   1               		.file	"tasks.c"
   2               	__SREG__ = 0x3f
   3               	__SP_H__ = 0x3e
   4               	__SP_L__ = 0x3d
   5               	__CCP__  = 0x34
   6               	__tmp_reg__ = 0
   7               	__zero_reg__ = 1
  15               	.Ltext0:
  16               	.global	Tasks_Task9
  18               	Tasks_Task9:
  19               	.LFB14:
  20               	.LM1:
  21               	/* prologue: function */
  22               	/* frame size = 0 */
  23               	.LM2:
  24 0000 80E0      		ldi r24,lo8(0)
  25 0002 90E0      		ldi r25,hi8(0)
  26 0004 0E94 0000 		call Debug_Init
  27               	.L2:
  28               	.LM3:
  29               	/* #APP */
  30               	 ;  242 "tasks.c" 1
  31 0008 0F93      		push r16
  32               	 ;  0 "" 2
  33               	.LM4:
  34               	/* #NOAPP */
  35 000a 8AE5      		ldi r24,lo8(90)
  36 000c 90E0      		ldi r25,hi8(90)
  37 000e 0E94 0000 		call Kernel_Task_Constant_Latency
  38               	.LM5:
  39               	/* #APP */
  40               	 ;  244 "tasks.c" 1
  41 0012 0F91      		pop r16
  42               	 ;  0 "" 2
  43               	.LM6:
  44               	/* #NOAPP */
  45 0014 89E0      		ldi r24,lo8(9)
  46 0016 0E94 0000 		call Debug_Tx_Byte
  47               	.LM7:
  48 001a 0E94 0000 		call Kernel_Abs_High_Prio_Task_ID_Get
  49 001e 805F      		subi r24,lo8(-(16))
  50 0020 0E94 0000 		call Debug_Tx_Byte
  51               	.LM8:
  52 0024 0E94 0000 		call Kernel_Lowest_Prio_Get
  53 0028 0E94 0000 		call Debug_Tx_Byte
  54               	.LM9:
  55 002c 0E94 0000 		call Kernel_Task_Constant_Latency_Sleep
  56 0030 00C0      		rjmp .L2
  57               	.LFE14:
  59               	.global	Tasks_Task8
  61               	Tasks_Task8:
  62               	.LFB13:
  63               	.LM10:
  64               	/* prologue: function */
  65               	/* frame size = 0 */
  66               	.LM11:
  67 0032 80E0      		ldi r24,lo8(0)
  68 0034 90E0      		ldi r25,hi8(0)
  69 0036 0E94 0000 		call Debug_Init
  70               	.L5:
  71               	.LM12:
  72               	/* #APP */
  73               	 ;  218 "tasks.c" 1
  74 003a 0F93      		push r16
  75               	 ;  0 "" 2
  76               	.LM13:
  77               	/* #NOAPP */
  78 003c 80E5      		ldi r24,lo8(80)
  79 003e 90E0      		ldi r25,hi8(80)
  80 0040 0E94 0000 		call Kernel_Task_Constant_Latency
  81               	.LM14:
  82               	/* #APP */
  83               	 ;  220 "tasks.c" 1
  84 0044 0F91      		pop r16
  85               	 ;  0 "" 2
  86               	.LM15:
  87               	/* #NOAPP */
  88 0046 88E0      		ldi r24,lo8(8)
  89 0048 0E94 0000 		call Debug_Tx_Byte
  90               	.LM16:
  91 004c 0E94 0000 		call Kernel_Abs_High_Prio_Task_ID_Get
  92 0050 805F      		subi r24,lo8(-(16))
  93 0052 0E94 0000 		call Debug_Tx_Byte
  94               	.LM17:
  95 0056 0E94 0000 		call Kernel_Lowest_Prio_Get
  96 005a 0E94 0000 		call Debug_Tx_Byte
  97               	.LM18:
  98 005e 0E94 0000 		call Kernel_Task_Constant_Latency_Sleep
  99 0062 00C0      		rjmp .L5
 100               	.LFE13:
 102               	.global	Tasks_Task7
 104               	Tasks_Task7:
 105               	.LFB12:
 106               	.LM19:
 107               	/* prologue: function */
 108               	/* frame size = 0 */
 109               	.LM20:
 110 0064 80E0      		ldi r24,lo8(0)
 111 0066 90E0      		ldi r25,hi8(0)
 112 0068 0E94 0000 		call Debug_Init
 113               	.L8:
 114               	.LM21:
 115               	/* #APP */
 116               	 ;  194 "tasks.c" 1
 117 006c 0F93      		push r16
 118               	 ;  0 "" 2
 119               	.LM22:
 120               	/* #NOAPP */
 121 006e 86E4      		ldi r24,lo8(70)
 122 0070 90E0      		ldi r25,hi8(70)
 123 0072 0E94 0000 		call Kernel_Task_Constant_Latency
 124               	.LM23:
 125               	/* #APP */
 126               	 ;  196 "tasks.c" 1
 127 0076 0F91      		pop r16
 128               	 ;  0 "" 2
 129               	.LM24:
 130               	/* #NOAPP */
 131 0078 87E0      		ldi r24,lo8(7)
 132 007a 0E94 0000 		call Debug_Tx_Byte
 133               	.LM25:
 134 007e 0E94 0000 		call Kernel_Abs_High_Prio_Task_ID_Get
 135 0082 805F      		subi r24,lo8(-(16))
 136 0084 0E94 0000 		call Debug_Tx_Byte
 137               	.LM26:
 138 0088 0E94 0000 		call Kernel_Lowest_Prio_Get
 139 008c 0E94 0000 		call Debug_Tx_Byte
 140               	.LM27:
 141 0090 0E94 0000 		call Kernel_Task_Constant_Latency_Sleep
 142 0094 00C0      		rjmp .L8
 143               	.LFE12:
 145               	.global	Tasks_Task6
 147               	Tasks_Task6:
 148               	.LFB11:
 149               	.LM28:
 150               	/* prologue: function */
 151               	/* frame size = 0 */
 152               	.LM29:
 153 0096 80E0      		ldi r24,lo8(0)
 154 0098 90E0      		ldi r25,hi8(0)
 155 009a 0E94 0000 		call Debug_Init
 156               	.L11:
 157               	.LM30:
 158               	/* #APP */
 159               	 ;  170 "tasks.c" 1
 160 009e 0F93      		push r16
 161               	 ;  0 "" 2
 162               	.LM31:
 163               	/* #NOAPP */
 164 00a0 8CE3      		ldi r24,lo8(60)
 165 00a2 90E0      		ldi r25,hi8(60)
 166 00a4 0E94 0000 		call Kernel_Task_Constant_Latency
 167               	.LM32:
 168               	/* #APP */
 169               	 ;  172 "tasks.c" 1
 170 00a8 0F91      		pop r16
 171               	 ;  0 "" 2
 172               	.LM33:
 173               	/* #NOAPP */
 174 00aa 86E0      		ldi r24,lo8(6)
 175 00ac 0E94 0000 		call Debug_Tx_Byte
 176               	.LM34:
 177 00b0 0E94 0000 		call Kernel_Abs_High_Prio_Task_ID_Get
 178 00b4 805F      		subi r24,lo8(-(16))
 179 00b6 0E94 0000 		call Debug_Tx_Byte
 180               	.LM35:
 181 00ba 0E94 0000 		call Kernel_Lowest_Prio_Get
 182 00be 0E94 0000 		call Debug_Tx_Byte
 183               	.LM36:
 184 00c2 0E94 0000 		call Kernel_Task_Constant_Latency_Sleep
 185 00c6 00C0      		rjmp .L11
 186               	.LFE11:
 188               	.global	Tasks_Task5
 190               	Tasks_Task5:
 191               	.LFB10:
 192               	.LM37:
 193 00c8 1F93      		push r17
 194               	/* prologue: function */
 195               	/* frame size = 0 */
 196               	.LM38:
 197 00ca 3D9A      		sbi 39-32,5
 198               	.LM39:
 199 00cc 80E0      		ldi r24,lo8(0)
 200 00ce 90E0      		ldi r25,hi8(0)
 201 00d0 0E94 0000 		call Debug_Init
 202               	.LM40:
 203 00d4 10E2      		ldi r17,lo8(32)
 204               	.L14:
 205               	.LM41:
 206               	/* #APP */
 207               	 ;  144 "tasks.c" 1
 208 00d6 0F93      		push r16
 209               	 ;  0 "" 2
 210               	.LM42:
 211               	/* #NOAPP */
 212 00d8 82E3      		ldi r24,lo8(50)
 213 00da 90E0      		ldi r25,hi8(50)
 214 00dc 0E94 0000 		call Kernel_Task_Constant_Latency
 215               	.LM43:
 216               	/* #APP */
 217               	 ;  146 "tasks.c" 1
 218 00e0 0F91      		pop r16
 219               	 ;  0 "" 2
 220               	.LM44:
 221               	/* #NOAPP */
 222 00e2 88B1      		in r24,40-32
 223 00e4 8127      		eor r24,r17
 224 00e6 88B9      		out 40-32,r24
 225               	.LM45:
 226 00e8 85E0      		ldi r24,lo8(5)
 227 00ea 0E94 0000 		call Debug_Tx_Byte
 228               	.LM46:
 229 00ee 0E94 0000 		call Kernel_Abs_High_Prio_Task_ID_Get
 230 00f2 805F      		subi r24,lo8(-(16))
 231 00f4 0E94 0000 		call Debug_Tx_Byte
 232               	.LM47:
 233 00f8 0E94 0000 		call Kernel_Lowest_Prio_Get
 234 00fc 0E94 0000 		call Debug_Tx_Byte
 235               	.LM48:
 236 0100 0E94 0000 		call Kernel_Task_Constant_Latency_Sleep
 237 0104 00C0      		rjmp .L14
 238               	.LFE10:
 240               	.global	Tasks_Task4
 242               	Tasks_Task4:
 243               	.LFB9:
 244               	.LM49:
 245 0106 1F93      		push r17
 246               	/* prologue: function */
 247               	/* frame size = 0 */
 248               	.LM50:
 249 0108 3C9A      		sbi 39-32,4
 250               	.LM51:
 251 010a 80E0      		ldi r24,lo8(0)
 252 010c 90E0      		ldi r25,hi8(0)
 253 010e 0E94 0000 		call Debug_Init
 254               	.LM52:
 255 0112 10E1      		ldi r17,lo8(16)
 256               	.L17:
 257               	.LM53:
 258               	/* #APP */
 259               	 ;  116 "tasks.c" 1
 260 0114 0F93      		push r16
 261               	 ;  0 "" 2
 262               	.LM54:
 263               	/* #NOAPP */
 264 0116 88E2      		ldi r24,lo8(40)
 265 0118 90E0      		ldi r25,hi8(40)
 266 011a 0E94 0000 		call Kernel_Task_Constant_Latency
 267               	.LM55:
 268               	/* #APP */
 269               	 ;  118 "tasks.c" 1
 270 011e 0F91      		pop r16
 271               	 ;  0 "" 2
 272               	.LM56:
 273               	/* #NOAPP */
 274 0120 88B1      		in r24,40-32
 275 0122 8127      		eor r24,r17
 276 0124 88B9      		out 40-32,r24
 277               	.LM57:
 278 0126 84E0      		ldi r24,lo8(4)
 279 0128 0E94 0000 		call Debug_Tx_Byte
 280               	.LM58:
 281 012c 0E94 0000 		call Kernel_Abs_High_Prio_Task_ID_Get
 282 0130 805F      		subi r24,lo8(-(16))
 283 0132 0E94 0000 		call Debug_Tx_Byte
 284               	.LM59:
 285 0136 0E94 0000 		call Kernel_Lowest_Prio_Get
 286 013a 0E94 0000 		call Debug_Tx_Byte
 287               	.LM60:
 288 013e 0E94 0000 		call Kernel_Task_Constant_Latency_Sleep
 289 0142 00C0      		rjmp .L17
 290               	.LFE9:
 292               	.global	Tasks_Task3
 294               	Tasks_Task3:
 295               	.LFB8:
 296               	.LM61:
 297 0144 1F93      		push r17
 298               	/* prologue: function */
 299               	/* frame size = 0 */
 300               	.LM62:
 301 0146 3B9A      		sbi 39-32,3
 302               	.LM63:
 303 0148 80E0      		ldi r24,lo8(0)
 304 014a 90E0      		ldi r25,hi8(0)
 305 014c 0E94 0000 		call Debug_Init
 306               	.LM64:
 307 0150 18E0      		ldi r17,lo8(8)
 308               	.L20:
 309               	.LM65:
 310               	/* #APP */
 311               	 ;  88 "tasks.c" 1
 312 0152 0F93      		push r16
 313               	 ;  0 "" 2
 314               	.LM66:
 315               	/* #NOAPP */
 316 0154 8EE1      		ldi r24,lo8(30)
 317 0156 90E0      		ldi r25,hi8(30)
 318 0158 0E94 0000 		call Kernel_Task_Constant_Latency
 319               	.LM67:
 320               	/* #APP */
 321               	 ;  90 "tasks.c" 1
 322 015c 0F91      		pop r16
 323               	 ;  0 "" 2
 324               	.LM68:
 325               	/* #NOAPP */
 326 015e 88B1      		in r24,40-32
 327 0160 8127      		eor r24,r17
 328 0162 88B9      		out 40-32,r24
 329               	.LM69:
 330 0164 83E0      		ldi r24,lo8(3)
 331 0166 0E94 0000 		call Debug_Tx_Byte
 332               	.LM70:
 333 016a 0E94 0000 		call Kernel_Abs_High_Prio_Task_ID_Get
 334 016e 805F      		subi r24,lo8(-(16))
 335 0170 0E94 0000 		call Debug_Tx_Byte
 336               	.LM71:
 337 0174 0E94 0000 		call Kernel_Lowest_Prio_Get
 338 0178 0E94 0000 		call Debug_Tx_Byte
 339               	.LM72:
 340 017c 0E94 0000 		call Kernel_Task_Constant_Latency_Sleep
 341 0180 00C0      		rjmp .L20
 342               	.LFE8:
 344               	.global	Tasks_Task2
 346               	Tasks_Task2:
 347               	.LFB7:
 348               	.LM73:
 349 0182 1F93      		push r17
 350               	/* prologue: function */
 351               	/* frame size = 0 */
 352               	.LM74:
 353 0184 3A9A      		sbi 39-32,2
 354               	.LM75:
 355 0186 80E0      		ldi r24,lo8(0)
 356 0188 90E0      		ldi r25,hi8(0)
 357 018a 0E94 0000 		call Debug_Init
 358               	.LM76:
 359 018e 14E0      		ldi r17,lo8(4)
 360               	.L23:
 361               	.LM77:
 362               	/* #APP */
 363               	 ;  60 "tasks.c" 1
 364 0190 0F93      		push r16
 365               	 ;  0 "" 2
 366               	.LM78:
 367               	/* #NOAPP */
 368 0192 84E1      		ldi r24,lo8(20)
 369 0194 90E0      		ldi r25,hi8(20)
 370 0196 0E94 0000 		call Kernel_Task_Constant_Latency
 371               	.LM79:
 372               	/* #APP */
 373               	 ;  62 "tasks.c" 1
 374 019a 0F91      		pop r16
 375               	 ;  0 "" 2
 376               	.LM80:
 377               	/* #NOAPP */
 378 019c 88B1      		in r24,40-32
 379 019e 8127      		eor r24,r17
 380 01a0 88B9      		out 40-32,r24
 381               	.LM81:
 382 01a2 82E0      		ldi r24,lo8(2)
 383 01a4 0E94 0000 		call Debug_Tx_Byte
 384               	.LM82:
 385 01a8 0E94 0000 		call Kernel_Abs_High_Prio_Task_ID_Get
 386 01ac 805F      		subi r24,lo8(-(16))
 387 01ae 0E94 0000 		call Debug_Tx_Byte
 388               	.LM83:
 389 01b2 0E94 0000 		call Kernel_Lowest_Prio_Get
 390 01b6 0E94 0000 		call Debug_Tx_Byte
 391               	.LM84:
 392 01ba 0E94 0000 		call Kernel_Task_Constant_Latency_Sleep
 393 01be 00C0      		rjmp .L23
 394               	.LFE7:
 396               	.global	Tasks_Task1
 398               	Tasks_Task1:
 399               	.LFB6:
 400               	.LM85:
 401 01c0 0F93      		push r16
 402 01c2 1F93      		push r17
 403               	/* prologue: function */
 404               	/* frame size = 0 */
 405               	.LM86:
 406 01c4 399A      		sbi 39-32,1
 407               	.LM87:
 408 01c6 80E0      		ldi r24,lo8(0)
 409 01c8 90E0      		ldi r25,hi8(0)
 410 01ca 0E94 0000 		call Debug_Init
 411               	.LM88:
 412 01ce 02E0      		ldi r16,lo8(2)
 413               	.LVL0:
 414               	.L27:
 415               	.LM89:
 416               	/* #APP */
 417               	 ;  17 "tasks.c" 1
 418 01d0 0F93      		push r16
 419               	 ;  0 "" 2
 420               	.LM90:
 421               	/* #NOAPP */
 422 01d2 8AE0      		ldi r24,lo8(10)
 423 01d4 90E0      		ldi r25,hi8(10)
 424 01d6 0E94 0000 		call Kernel_Task_Constant_Latency
 425               	.LM91:
 426               	/* #APP */
 427               	 ;  19 "tasks.c" 1
 428 01da 0F91      		pop r16
 429               	 ;  0 "" 2
 430               	.LM92:
 431               	/* #NOAPP */
 432 01dc 88B1      		in r24,40-32
 433 01de 8027      		eor r24,r16
 434 01e0 88B9      		out 40-32,r24
 435               	.LM93:
 436 01e2 81E0      		ldi r24,lo8(1)
 437 01e4 0E94 0000 		call Debug_Tx_Byte
 438               	.LM94:
 439 01e8 0E94 0000 		call Kernel_Abs_High_Prio_Task_ID_Get
 440 01ec 805F      		subi r24,lo8(-(16))
 441 01ee 0E94 0000 		call Debug_Tx_Byte
 442               	.LM95:
 443 01f2 0E94 0000 		call Kernel_Lowest_Prio_Get
 444 01f6 0E94 0000 		call Debug_Tx_Byte
 445 01fa 10E0      		ldi r17,lo8(0)
 446               	.L26:
 447               	.LBB2:
 448               	.LM96:
 449 01fc 812F      		mov r24,r17
 450 01fe 0E94 0000 		call Debug_Tx_Byte
 451               	.LM97:
 452 0202 1F5F      		subi r17,lo8(-(1))
 453 0204 183C      		cpi r17,lo8(-56)
 454 0206 01F4      		brne .L26
 455               	.LBE2:
 456               	.LM98:
 457 0208 0E94 0000 		call Kernel_Task_Constant_Latency_Sleep
 458 020c 00C0      		rjmp .L27
 459               	.LFE6:
 549               	.Letext0:
DEFINED SYMBOLS
                            *ABS*:00000000 tasks.c
C:\Users\farid\AppData\Local\Temp/ccP1Uj0T.s:2      *ABS*:0000003f __SREG__
C:\Users\farid\AppData\Local\Temp/ccP1Uj0T.s:3      *ABS*:0000003e __SP_H__
C:\Users\farid\AppData\Local\Temp/ccP1Uj0T.s:4      *ABS*:0000003d __SP_L__
C:\Users\farid\AppData\Local\Temp/ccP1Uj0T.s:5      *ABS*:00000034 __CCP__
C:\Users\farid\AppData\Local\Temp/ccP1Uj0T.s:6      *ABS*:00000000 __tmp_reg__
C:\Users\farid\AppData\Local\Temp/ccP1Uj0T.s:7      *ABS*:00000001 __zero_reg__
C:\Users\farid\AppData\Local\Temp/ccP1Uj0T.s:18     .text:00000000 Tasks_Task9
C:\Users\farid\AppData\Local\Temp/ccP1Uj0T.s:61     .text:00000032 Tasks_Task8
C:\Users\farid\AppData\Local\Temp/ccP1Uj0T.s:104    .text:00000064 Tasks_Task7
C:\Users\farid\AppData\Local\Temp/ccP1Uj0T.s:147    .text:00000096 Tasks_Task6
C:\Users\farid\AppData\Local\Temp/ccP1Uj0T.s:190    .text:000000c8 Tasks_Task5
C:\Users\farid\AppData\Local\Temp/ccP1Uj0T.s:242    .text:00000106 Tasks_Task4
C:\Users\farid\AppData\Local\Temp/ccP1Uj0T.s:294    .text:00000144 Tasks_Task3
C:\Users\farid\AppData\Local\Temp/ccP1Uj0T.s:346    .text:00000182 Tasks_Task2
C:\Users\farid\AppData\Local\Temp/ccP1Uj0T.s:398    .text:000001c0 Tasks_Task1

UNDEFINED SYMBOLS
Debug_Init
Kernel_Task_Constant_Latency
Debug_Tx_Byte
Kernel_Abs_High_Prio_Task_ID_Get
Kernel_Lowest_Prio_Get
Kernel_Task_Constant_Latency_Sleep
