   1               		.file	"tasks.c"
   2               	__SREG__ = 0x3f
   3               	__SP_H__ = 0x3e
   4               	__SP_L__ = 0x3d
   5               	__CCP__  = 0x34
   6               	__tmp_reg__ = 0
   7               	__zero_reg__ = 1
  15               	.Ltext0:
  16               	.global	Tasks_Task8
  18               	Tasks_Task8:
  19               	.LFB14:
  20               	.LM1:
  21               	/* prologue: function */
  22               	/* frame size = 0 */
  23               	.LM2:
  24 0000 80E0      		ldi r24,lo8(0)
  25 0002 90E0      		ldi r25,hi8(0)
  26 0004 0E94 0000 		call Debug_Init
  27               	.L2:
  28               	.LM3:
  29 0008 88E0      		ldi r24,lo8(8)
  30 000a 0E94 0000 		call Debug_Tx_Byte_Conf
  31 000e 00C0      		rjmp .L2
  32               	.LFE14:
  34               	.global	Tasks_Task7
  36               	Tasks_Task7:
  37               	.LFB13:
  38               	.LM4:
  39               	/* prologue: function */
  40               	/* frame size = 0 */
  41               	.LM5:
  42 0010 80E0      		ldi r24,lo8(0)
  43 0012 90E0      		ldi r25,hi8(0)
  44 0014 0E94 0000 		call Debug_Init
  45               	.L5:
  46               	.LM6:
  47 0018 87E0      		ldi r24,lo8(7)
  48 001a 0E94 0000 		call Debug_Tx_Byte_Conf
  49 001e 00C0      		rjmp .L5
  50               	.LFE13:
  52               	.global	Tasks_Task6
  54               	Tasks_Task6:
  55               	.LFB12:
  56               	.LM7:
  57               	/* prologue: function */
  58               	/* frame size = 0 */
  59               	.LM8:
  60 0020 80E0      		ldi r24,lo8(0)
  61 0022 90E0      		ldi r25,hi8(0)
  62 0024 0E94 0000 		call Debug_Init
  63               	.L8:
  64               	.LM9:
  65 0028 86E0      		ldi r24,lo8(6)
  66 002a 0E94 0000 		call Debug_Tx_Byte_Conf
  67 002e 00C0      		rjmp .L8
  68               	.LFE12:
  70               	.global	Tasks_Task5
  72               	Tasks_Task5:
  73               	.LFB11:
  74               	.LM10:
  75               	/* prologue: function */
  76               	/* frame size = 0 */
  77               	.LM11:
  78 0030 80E0      		ldi r24,lo8(0)
  79 0032 90E0      		ldi r25,hi8(0)
  80 0034 0E94 0000 		call Debug_Init
  81               	.L11:
  82               	.LM12:
  83 0038 85E0      		ldi r24,lo8(5)
  84 003a 0E94 0000 		call Debug_Tx_Byte_Conf
  85 003e 00C0      		rjmp .L11
  86               	.LFE11:
  88               	.global	Tasks_Task4
  90               	Tasks_Task4:
  91               	.LFB10:
  92               	.LM13:
  93               	/* prologue: function */
  94               	/* frame size = 0 */
  95               	.LM14:
  96 0040 80E0      		ldi r24,lo8(0)
  97 0042 90E0      		ldi r25,hi8(0)
  98 0044 0E94 0000 		call Debug_Init
  99               	.L14:
 100               	.LM15:
 101 0048 84E0      		ldi r24,lo8(4)
 102 004a 0E94 0000 		call Debug_Tx_Byte
 103               	.LM16:
 104 004e 0E94 0000 		call Kernel_High_Prio_Task_ID_Get
 105 0052 805F      		subi r24,lo8(-(16))
 106 0054 0E94 0000 		call Debug_Tx_Byte
 107 0058 00C0      		rjmp .L14
 108               	.LFE10:
 110               	.global	Tasks_Task3
 112               	Tasks_Task3:
 113               	.LFB9:
 114               	.LM17:
 115               	/* prologue: function */
 116               	/* frame size = 0 */
 117               	.LM18:
 118 005a 80E0      		ldi r24,lo8(0)
 119 005c 90E0      		ldi r25,hi8(0)
 120 005e 0E94 0000 		call Debug_Init
 121               	.L17:
 122               	.LM19:
 123 0062 83E0      		ldi r24,lo8(3)
 124 0064 0E94 0000 		call Debug_Tx_Byte
 125               	.LM20:
 126 0068 0E94 0000 		call Kernel_High_Prio_Task_ID_Get
 127 006c 805F      		subi r24,lo8(-(16))
 128 006e 0E94 0000 		call Debug_Tx_Byte
 129 0072 00C0      		rjmp .L17
 130               	.LFE9:
 132               	.global	Tasks_Task2
 134               	Tasks_Task2:
 135               	.LFB8:
 136               	.LM21:
 137 0074 1F93      		push r17
 138               	/* prologue: function */
 139               	/* frame size = 0 */
 140               	.LM22:
 141 0076 80E0      		ldi r24,lo8(0)
 142 0078 90E0      		ldi r25,hi8(0)
 143 007a 0E94 0000 		call Debug_Init
 144               	.LM23:
 145 007e 569A      		sbi 42-32,6
 146               	.LM24:
 147 0080 10E4      		ldi r17,lo8(64)
 148               	.L20:
 149 0082 8BB1      		in r24,43-32
 150 0084 8127      		eor r24,r17
 151 0086 8BB9      		out 43-32,r24
 152               	.LM25:
 153 0088 82E0      		ldi r24,lo8(2)
 154 008a 0E94 0000 		call Debug_Tx_Byte
 155               	.LM26:
 156 008e 0E94 0000 		call Kernel_High_Prio_Task_ID_Get
 157 0092 805F      		subi r24,lo8(-(16))
 158 0094 0E94 0000 		call Debug_Tx_Byte
 159 0098 00C0      		rjmp .L20
 160               	.LFE8:
 162               	.global	Tasks_Task1
 164               	Tasks_Task1:
 165               	.LFB7:
 166               	.LM27:
 167 009a 1F93      		push r17
 168               	/* prologue: function */
 169               	/* frame size = 0 */
 170               	.LM28:
 171 009c 80E0      		ldi r24,lo8(0)
 172 009e 90E0      		ldi r25,hi8(0)
 173 00a0 0E94 0000 		call Debug_Init
 174               	.LM29:
 175 00a4 559A      		sbi 42-32,5
 176               	.LM30:
 177 00a6 10E2      		ldi r17,lo8(32)
 178               	.L23:
 179 00a8 8BB1      		in r24,43-32
 180 00aa 8127      		eor r24,r17
 181 00ac 8BB9      		out 43-32,r24
 182               	.LM31:
 183 00ae 81E0      		ldi r24,lo8(1)
 184 00b0 0E94 0000 		call Debug_Tx_Byte
 185               	.LM32:
 186 00b4 0E94 0000 		call Kernel_High_Prio_Task_ID_Get
 187 00b8 805F      		subi r24,lo8(-(16))
 188 00ba 0E94 0000 		call Debug_Tx_Byte
 189 00be 00C0      		rjmp .L23
 190               	.LFE7:
 192               	.global	Tasks_Task0
 194               	Tasks_Task0:
 195               	.LFB6:
 196               	.LM33:
 197               	/* prologue: function */
 198               	/* frame size = 0 */
 199               	.LM34:
 200 00c0 80E0      		ldi r24,lo8(0)
 201 00c2 90E0      		ldi r25,hi8(0)
 202 00c4 0E94 0000 		call Debug_Init
 203               	.L26:
 204               	.LM35:
 205 00c8 80E0      		ldi r24,lo8(0)
 206 00ca 0E94 0000 		call Debug_Tx_Byte
 207               	.LM36:
 208 00ce 0E94 0000 		call Kernel_High_Prio_Task_ID_Get
 209 00d2 805F      		subi r24,lo8(-(16))
 210 00d4 0E94 0000 		call Debug_Tx_Byte
 211 00d8 00C0      		rjmp .L26
 212               	.LFE6:
 302               	.Letext0:
DEFINED SYMBOLS
                            *ABS*:00000000 tasks.c
C:\Users\farid\AppData\Local\Temp/cc2QNMlu.s:2      *ABS*:0000003f __SREG__
C:\Users\farid\AppData\Local\Temp/cc2QNMlu.s:3      *ABS*:0000003e __SP_H__
C:\Users\farid\AppData\Local\Temp/cc2QNMlu.s:4      *ABS*:0000003d __SP_L__
C:\Users\farid\AppData\Local\Temp/cc2QNMlu.s:5      *ABS*:00000034 __CCP__
C:\Users\farid\AppData\Local\Temp/cc2QNMlu.s:6      *ABS*:00000000 __tmp_reg__
C:\Users\farid\AppData\Local\Temp/cc2QNMlu.s:7      *ABS*:00000001 __zero_reg__
C:\Users\farid\AppData\Local\Temp/cc2QNMlu.s:18     .text:00000000 Tasks_Task8
C:\Users\farid\AppData\Local\Temp/cc2QNMlu.s:36     .text:00000010 Tasks_Task7
C:\Users\farid\AppData\Local\Temp/cc2QNMlu.s:54     .text:00000020 Tasks_Task6
C:\Users\farid\AppData\Local\Temp/cc2QNMlu.s:72     .text:00000030 Tasks_Task5
C:\Users\farid\AppData\Local\Temp/cc2QNMlu.s:90     .text:00000040 Tasks_Task4
C:\Users\farid\AppData\Local\Temp/cc2QNMlu.s:112    .text:0000005a Tasks_Task3
C:\Users\farid\AppData\Local\Temp/cc2QNMlu.s:134    .text:00000074 Tasks_Task2
C:\Users\farid\AppData\Local\Temp/cc2QNMlu.s:164    .text:0000009a Tasks_Task1
C:\Users\farid\AppData\Local\Temp/cc2QNMlu.s:194    .text:000000c0 Tasks_Task0

UNDEFINED SYMBOLS
Debug_Init
Debug_Tx_Byte_Conf
Debug_Tx_Byte
Kernel_High_Prio_Task_ID_Get
